(dp1
S'limited'
p2
I1628
sS'pardon'
p3
I1656
sS'felt'
p4
I66
sS'everybody'
p5
I1669
sS'four'
p6
I237
sS'facilities'
p7
I168
sS'sleep'
p8
I1584
sS'appetite'
p9
I2727
sS'captain'
p10
I1055
sS'hate'
p11
I1965
sS'worked'
p12
I3027
sS'forget'
p13
I1906
sS'someplace'
p14
I2257
sS'paris'
p15
I665
sS'quadruple'
p16
I2236
sS'presents'
p17
I726
sS'under'
p18
I472
sS'stationery'
p19
I1663
sS'sorry'
p20
I296
sS'worth'
p21
I900
sS'shaving'
p22
I3110
sS'risk'
p23
I2077
sS'blanket'
p24
I1726
sS'every'
p25
I280
sS'yellow'
p26
I2215
sS'bringing'
p27
I2645
sS'tickets'
p28
I299
sS'school'
p29
I916
sS'companies'
p30
I2582
sS'wednesday'
p31
I926
sS'convenience'
p32
I2198
sS'flashy'
p33
I1527
sS'employees'
p34
I2757
sS'reliable'
p35
I2182
sS'seven-'
p36
I2364
sS'clothes'
p37
I155
sS'enjoy'
p38
I1377
sS'charter'
p39
I324
sS'bicycle'
p40
I2869
sS'tired'
p41
I1912
sS'phones'
p42
I1747
sS'bacon'
p43
I746
sS'japanese'
p44
I194
sS'chef'
p45
I1343
sS'across'
p46
I1469
sS'second'
p47
I668
sS'street'
p48
I274
sS'machines'
p49
I812
sS'blue'
p50
I75
sS'centimeter'
p51
I2650
sS'cooking'
p52
I2230
sS'orchestra'
p53
I1790
sS'liberty'
p54
I1735
sS'lights'
p55
I813
sS'above'
p56
I1635
sS'dr.'
p57
I1032
sS'new'
p58
I277
sS'increasing'
p59
I2612
sS'ever'
p60
I1666
sS'told'
p61
I1552
sS'specialist'
p62
I1489
sS'whose'
p63
I2322
sS'pancakes'
p64
I2737
sS'join'
p65
I1576
sS'never'
p66
I87
sS'wrapping'
p67
I1365
sS'equals'
p68
I2388
sS'here'
p69
I91
sS'met'
p70
I1717
sS'china'
p71
I3090
sS'cart'
p72
I1999
sS'dry'
p73
I1606
sS'daughter'
p74
I1475
sS'luggage'
p75
I1029
sS'items'
p76
I991
sS'study'
p77
I1019
sS'changed'
p78
I847
sS'credit'
p79
I1356
sS'smoke'
p80
I1904
sS'permit'
p81
I1578
sS'suitable'
p82
I2255
sS'changes'
p83
I2708
sS'cancellation'
p84
I2227
sS'fell'
p85
I2238
sS'golden'
p86
I1451
sS'prints'
p87
I2537
sS'yamada'
p88
I571
sS'slices'
p89
I2084
sS'replace'
p90
I2698
sS'brought'
p91
I761
sS'ninety'
p92
I2354
sS'guests'
p93
I552
sS'total'
p94
I938
sS'kobayashi'
p95
I2956
sS'would'
p96
I152
sS'<s>'
p97
I1
sS'sweater'
p98
I305
sS'coins'
p99
I822
sS'sunny-'
p100
I3061
sS'call'
p101
I208
sS'passport'
p102
I1397
sS'recommend'
p103
I531
sS'right-'
p104
I2920
sS'type'
p105
I188
sS'until'
p106
I96
sS'separated'
p107
I1542
sS'hurt'
p108
I1639
sS'phone'
p109
I879
sS'warm'
p110
I2516
sS'adult'
p111
I2744
sS'prescription'
p112
I1761
sS'hole'
p113
I2081
sS'hold'
p114
I564
sS'must'
p115
I1116
sS'me'
p116
I36
sS'ma'
p117
I1009
sS'room'
p118
I345
sS'player'
p119
I2794
sS'work'
p120
I756
sS'gasoline'
p121
I1292
sS'worn'
p122
I2578
sS'movies'
p123
I1012
sS'locker'
p124
I2332
sS'dizzy'
p125
I2942
sS'mr'
p126
I1908
sS'my'
p127
I82
sS'route'
p128
I1399
sS'boyfriend'
p129
I2225
sS'give'
p130
I176
sS'honey'
p131
I334
sS'currency'
p132
I2248
sS'foods'
p133
I3038
sS'want'
p134
I52
sS'premium'
p135
I2288
sS'keep'
p136
I203
sS'guarantee'
p137
I416
sS'ceremony'
p138
I2930
sS'end'
p139
I1047
sS'thing'
p140
I1416
sS'provide'
p141
I1632
sS'travel'
p142
I1514
sS'sitting'
p143
I2214
sS'damage'
p144
I519
sS'id'
p145
I1934
sS'machine'
p146
I940
sS'how'
p147
I141
sS'hot'
p148
I406
sS'answer'
p149
I778
sS'gate'
p150
I402
sS'surcharge'
p151
I2723
sS'beach'
p152
I1281
sS'sato'
p153
I1612
sS'badly'
p154
I1100
sS'fever'
p155
I1096
sS'briefcase'
p156
I928
sS'beauty'
p157
I2628
sS'funny'
p158
I2855
sS'after'
p159
I68
sS'damaged'
p160
I307
sS'customs'
p161
I399
sS'millimeter'
p162
I2879
sS'wrong'
p163
I639
sS'forty-'
p164
I1225
sS'president'
p165
I740
sS'law'
p166
I1208
sS'types'
p167
I392
sS'las'
p168
I1972
sS'purchase'
p169
I1786
sS'compartment'
p170
I3035
sS'chills'
p171
I2746
sS'thirteenth'
p172
I2821
sS'third'
p173
I150
sS'appreciate'
p174
I1899
sS'exhibition'
p175
I2028
sS'baggage'
p176
I204
sS'green'
p177
I228
sS'scarf'
p178
I1954
sS'ambulance'
p179
I262
sS'oysters'
p180
I722
sS'order'
p181
I415
sS'wind'
p182
I2775
sS'wine'
p183
I157
sS'the-'
p184
I1107
sS'office'
p185
I1084
sS'deck'
p186
I3062
sS'over'
p187
I57
sS'satisfied'
p188
I2633
sS'reconfirmed'
p189
I2099
sS'london'
p190
I1688
sS'japan'
p191
I550
sS'windshield'
p192
I2718
sS'before'
p193
I245
sS'saigon'
p194
I431
sS'fit'
p195
I1331
sS'pick-'
p196
I3034
sS'personal'
p197
I520
sS'fix'
p198
I1136
sS','
I34
sS'denver'
p199
I2959
sS'crew'
p200
I1894
sS'better'
p201
I683
sS'production'
p202
I3043
sS'person-'
p203
I2346
sS'weeks'
p204
I2126
sS'carton'
p205
I1384
sS'then'
p206
I71
sS'them'
p207
I191
sS'tourist'
p208
I61
sS'combination'
p209
I2110
sS'similar'
p210
I2926
sS'safe'
p211
I2504
sS'disturb'
p212
I2082
sS'break'
p213
I200
sS'band'
p214
I1430
sS'roommate'
p215
I2808
sS'effects'
p216
I2044
sS'they'
p217
I380
sS'schools'
p218
I2571
sS'altogether'
p219
I2038
sS'one'
p220
I263
sS'rental'
p221
I656
sS'silver'
p222
I2323
sS'bank'
p223
I844
sS'bread'
p224
I133
sS'meat'
p225
I2061
sS'potatoes'
p226
I1188
sS'detroit'
p227
I1873
sS'rocks'
p228
I1808
sS'filling'
p229
I3051
sS'roast'
p230
I711
sS'each'
p231
I699
sS'went'
p232
I830
sS'meal'
p233
I235
sS'bone'
p234
I2877
sS'mean'
p235
I1140
sS'financial'
p236
I2076
sS'stronger'
p237
I2798
sS'arrives'
p238
I2560
sS'trading'
p239
I2675
sS'forgot'
p240
I2430
sS'cathedral'
p241
I1734
sS'saturday'
p242
I1437
sS'hostel'
p243
I3106
sS'by'
p244
I173
sS'forwarding'
p245
I2764
sS'network'
p246
I1627
sS'driving'
p247
I272
sS'god'
p248
I1705
sS'cameras'
p249
I1732
sS'washed'
p250
I941
sS'forty'
p251
I1266
sS'george'
p252
I2344
sS'artists'
p253
I3072
sS't-'
p254
I2900
sS'medicine'
p255
I396
sS'got'
p256
I827
sS'engineer'
p257
I2447
sS'carry-'
p258
I2577
sS'foundation'
p259
I591
sS'u.s.'
p260
I890
sS'little'
p261
I405
sS'free'
p262
I1165
sS'standard'
p263
I3104
sS'ancient'
p264
I2444
sS'grapes'
p265
I2517
sS'sheet'
p266
I2562
sS'estimate'
p267
I1122
sS'wanted'
p268
I784
sS'greasy'
p269
I3044
sS'aisle'
p270
I1121
sS'starts'
p271
I586
sS'inexpensive'
p272
I2755
sS'messages'
p273
I2431
sS'days'
p274
I113
sS'takeout'
p275
I1893
sS'soda'
p276
I707
sS'moving'
p277
I2579
sS'loud'
p278
I2235
sS'bite'
p279
I147
sS'cleaning'
p280
I1700
sS'already'
p281
I278
sS'i.'
p282
I3060
sS'channels'
p283
I2759
sS'lettuce'
p284
I1768
sS'another'
p285
I451
sS'thick'
p286
I2026
sS'electronic'
p287
I1477
sS'plugs'
p288
I2995
sS'awfully'
p289
I3010
sS'here-'
p290
I2327
sS'basketball'
p291
I441
sS'discotheque'
p292
I1254
sS'service'
p293
I476
sS'top'
p294
I2401
sS'engagement'
p295
I1345
sS'girls'
p296
I1853
sS'twisted'
p297
I63
sS'elevator'
p298
I1049
sS'master'
p299
I524
sS'too'
p300
I212
sS'blossoms'
p301
I1754
sS'tom'
p302
I2483
sS'hollywood'
p303
I2762
sS'john'
p304
I2500
sS'dogs'
p305
I2124
sS'listen'
p306
I587
sS'growth'
p307
I2177
sS'cocktails'
p308
I2713
sS'serve'
p309
I763
sS'took'
p310
I1064
sS'direct'
p311
I1752
sS'tokens'
p312
I2193
sS'wrapped'
p313
I2064
sS'western'
p314
I1264
sS'honolulu'
p315
I1467
sS'kept'
p316
I2437
sS'postcards'
p317
I2042
sS'character'
p318
I3036
sS'boarding'
p319
I674
sS'distance'
p320
I448
sS'twenty-'
p321
I514
sS'kenji'
p322
I2223
sS'older'
p323
I3068
sS'rate'
p324
I352
sS'seated'
p325
I1236
sS'final'
p326
I2620
sS'shower'
p327
I409
sS'matter'
p328
I730
sS'louder'
p329
I882
sS'friend'
p330
I486
sS'iron'
p331
I1521
sS'to-'
p332
I681
sS'feeling'
p333
I1673
sS'minus'
p334
I2387
sS'supplement'
p335
I2314
sS'bridge'
p336
I1452
sS'fashion'
p337
I1778
sS'palace'
p338
I1971
sS'ran'
p339
I533
sS'boston'
p340
I584
sS'modern'
p341
I2639
sS'mind'
p342
I873
sS'mine'
p343
I226
sS'ginger'
p344
I1274
sS'anybody'
p345
I2472
sS'well-'
p346
I966
sS'talking'
p347
I1608
sS'railpass'
p348
I3108
sS'seen'
p349
I421
sS'seem'
p350
I1079
sS'compartments'
p351
I2899
sS'contents'
p352
I2542
sS'ray'
p353
I688
sS'genuine'
p354
I2247
sS'escalator'
p355
I2433
sS'convenient'
p356
I603
sS'neck'
p357
I1715
sS'x-'
p358
I687
sS'snow'
p359
I2598
sS'wipe'
p360
I3114
sS'sound'
p361
I2443
sS'fitting'
p362
I1571
sS'rome'
p363
I1284
sS'doors'
p364
I1135
sS'sleeper'
p365
I2280
sS'explanation'
p366
I2703
sS'even'
p367
I1704
sS'exactly'
p368
I1558
sS'jammed'
p369
I2393
sS'shall'
p370
I667
sS'hairdresser'
p371
I3023
sS'dial'
p372
I1762
sS'mashed'
p373
I1187
sS'victoria'
p374
I2494
sS'landmark'
p375
I2769
sS'regular'
p376
I317
sS'mouth'
p377
I137
sS'letter'
p378
I255
sS'coin'
p379
I2533
sS'medical'
p380
I732
sS'm'
I1387
sS'dog'
p381
I298
sS'yours'
p382
I1922
sS'freeway'
p383
I1456
sS'missed'
p384
I1448
sS'points'
p385
I2317
sS'eighty-'
p386
I314
sS'pineapple'
p387
I2432
sS'nineteenth'
p388
I945
sS'scotch'
p389
I2552
sS'poisonous'
p390
I2828
sS'came'
p391
I1045
sS'reserve'
p392
I118
sS'd.'
p393
I2987
sS'saying'
p394
I1523
sS'departing'
p395
I2027
sS'labels'
p396
I2993
sS'colors'
p397
I943
sS'reissue'
p398
I1577
sS'radio'
p399
I2096
sS'range'
p400
I2190
sS'australian'
p401
I2202
sS'enjoyed'
p402
I569
sS'toast'
p403
I1175
sS'orleans'
p404
I2583
sS'busy'
p405
I959
sS'menu'
p406
I463
sS'explain'
p407
I1062
sS'sugar'
p408
I219
sS'remittance'
p409
I2503
sS'rich'
p410
I2607
sS'mend'
p411
I2045
sS'monuments'
p412
I2531
sS'rice'
p413
I364
sS'wearing'
p414
I2164
sS'do'
p415
I46
sS'sunglasses'
p416
I857
sS'klein'
p417
I2591
sS'de'
p418
I1693
sS'watch'
p419
I760
sS'legs'
p420
I2841
sS'coast'
p421
I2597
sS'pocket'
p422
I1026
sS'watson'
p423
I3064
sS'wedding'
p424
I1436
sS'report'
p425
I1218
sS'botanical'
p426
I1497
sS'chanel'
p427
I1504
sS'runs'
p428
I2411
sS'bar'
p429
I295
sS'countries'
p430
I2349
sS'eurail'
p431
I2610
sS'bay'
p432
I794
sS'bag'
p433
I292
sS'bad'
p434
I1474
sS'architecture'
p435
I1347
sS'shots'
p436
I1967
sS'grilled'
p437
I160
sS'steak'
p438
I1342
sS'automatic'
p439
I347
sS'ears'
p440
I383
sS'gallon'
p441
I2872
sS'fair'
p442
I2086
sS'liquor'
p443
I3088
sS'alterations'
p444
I47
sS'depends'
p445
I2351
sS'decided'
p446
I1668
sS'noodles'
p447
I1311
sS'best'
p448
I418
sS'subject'
p449
I2602
sS'said'
p450
I1125
sS'capacity'
p451
I3004
sS'lots'
p452
I2348
sS'away'
p453
I373
sS'gentleman'
p454
I1843
sS'artificial'
p455
I933
sS'stamps'
p456
I369
sS'future'
p457
I2200
sS'finger'
p458
I1895
sS'yogurt'
p459
I1536
sS'shaver'
p460
I453
sS'yamashita'
p461
I1774
sS'fountain'
p462
I2774
sS'we'
p463
I51
sS'men'
p464
I2078
sS'terms'
p465
I2852
sS'extend'
p466
I1696
sS'fruits'
p467
I1621
sS'weak'
p468
I679
sS'however'
p469
I2034
sS'souvenir'
p470
I342
sS'toothbrush'
p471
I2895
sS'harvard'
p472
I350
sS'wear'
p473
I1393
sS'news'
p474
I1382
sS'roller'
p475
I1291
sS'kitchen'
p476
I1373
sS'received'
p477
I2410
sS'accident'
p478
I521
sS'country'
p479
I542
sS'ill'
p480
I2149
sS'against'
p481
I1207
sS'players'
p482
I1746
sS'games'
p483
I129
sS'receiver'
p484
I2772
sS'unk'
p485
I0
sS'asked'
p486
I1316
sS'lenses'
p487
I1722
sS'collecting'
p488
I2957
sS'tough'
p489
I2173
sS'royal'
p490
I2197
sS'excess'
p491
I2340
sS'canyon'
p492
I1896
sS'towels'
p493
I1302
sS'springs'
p494
I1901
sS'speak'
p495
I205
sS'conference'
p496
I224
sS'bathroom'
p497
I1836
sS'beef'
p498
I575
sS'union'
p499
I652
sS'three'
p500
I281
sS'been'
p501
I540
sS'.'
I24
sS'commission'
p502
I1548
sS'beer'
p503
I425
sS'much'
p504
I142
sS'stadium'
p505
I1481
sS'expected'
p506
I1998
sS'lovely'
p507
I2469
sS'ikeda'
p508
I1289
sS'life'
p509
I1070
sS'attacked'
p510
I371
sS'hospitalized'
p511
I1473
sS'greyhound'
p512
I2528
sS'lift'
p513
I1072
sS'child'
p514
I2237
sS'catch'
p515
I5
sS'chili'
p516
I2817
sS'tide'
p517
I2638
sS'save'
p518
I1798
sS'tank'
p519
I344
sS'tastes'
p520
I912
sS'air'
p521
I786
sS'near'
p522
I55
sS'suppose'
p523
I2833
sS'aid'
p524
I1198
sS'voice'
p525
I2805
sS'k'
I1158
sS'procedure'
p526
I2671
sS'mistake'
p527
I748
sS'seven'
p528
I529
sS'fourteenth'
p529
I1863
sS'metropolitan'
p530
I1460
sS'played'
p531
I1401
sS"'clock"
p532
I611
sS'is'
p533
I15
sS'sushi'
p534
I2766
sS'it'
p535
I19
sS'expenses'
p536
I869
sS'throat'
p537
I1098
sS'eighteen'
p538
I1559
sS'brake'
p539
I1002
sS'cone'
p540
I2033
sS'in'
p541
I58
sS'conditioner'
p542
I755
sS't'
I2381
sS'seattle'
p543
I931
sS'sells'
p544
I368
sS'if'
p545
I30
sS'containing'
p546
I1117
sS'bottles'
p547
I997
sS'suggest'
p548
I411
sS'make'
p549
I326
sS'wound'
p550
I2667
sS'amount'
p551
I2025
sS'plated'
p552
I289
sS'beside'
p553
I2919
sS'vegetable'
p554
I2400
sS'plates'
p555
I1924
sS'several'
p556
I1807
sS'showing'
p557
I2717
sS'wheel'
p558
I2738
sS'boiled'
p559
I2427
sS'immigration'
p560
I2294
sS'hang'
p561
I1692
sS'rain'
p562
I1984
sS'hand'
p563
I554
sS"'oeuvres"
p564
I2632
sS'documents'
p565
I1538
sS'i-'
p566
I2927
sS'supper'
p567
I1683
sS'dark'
p568
I2148
sS'butter'
p569
I2350
sS'prescribed'
p570
I3099
sS'shortly'
p571
I1820
sS'programs'
p572
I2207
sS'game'
p573
I69
sS'ocean'
p574
I199
sS'savings'
p575
I2911
sS'contact'
p576
I625
sS'mother'
p577
I2185
sS'the'
p578
I11
sS'smoked'
p579
I3121
sS'musical'
p580
I1379
sS'left'
p581
I149
sS'just'
p582
I21
sS'yen'
p583
I724
sS'photo'
p584
I1496
sS'fantastic'
p585
I2733
sS'rush'
p586
I2352
sS'thanks'
p587
I884
sS'yes'
p588
I630
sS'yamamoto'
p589
I2209
sS'yet'
p590
I737
sS'previous'
p591
I1145
sS'ham'
p592
I747
sS'equipment'
p593
I1432
sS'cherry'
p594
I354
sS'had'
p595
I636
sS'pharmacy'
p596
I2140
sS'board'
p597
I657
sS'easy'
p598
I1582
sS'fares'
p599
I3096
sS'has'
p600
I696
sS'hat'
p601
I1394
sS'sherbet'
p602
I2121
sS'gave'
p603
I2010
sS'possible'
p604
I579
sS'boxes'
p605
I2547
sS'background'
p606
I2702
sS'picasso'
p607
I2424
sS'shadow'
p608
I1797
sS'unique'
p609
I1303
sS'd'
I2313
sS'shoulder'
p610
I1678
sS'sliced'
p611
I2767
sS'sickness'
p612
I1664
sS'gift'
p613
I771
sS'manual'
p614
I556
sS'offices'
p615
I1043
sS'officer'
p616
I2331
sS'night'
p617
I333
sS'security'
p618
I2682
sS'signal'
p619
I2586
sS'towards'
p620
I3048
sS'right'
p621
I171
sS'old'
p622
I234
sS'deal'
p623
I1801
sS'people'
p624
I503
sS'understand'
p625
I642
sS'somehow'
p626
I2935
sS'dead'
p627
I2072
sS'born'
p628
I2712
sS'clubs'
p629
I1699
sS'meters'
p630
I2201
sS'dear'
p631
I3019
sS'left-'
p632
I2747
sS'for'
p633
I108
sS'bottom'
p634
I1831
sS'normal'
p635
I2662
sS'ice'
p636
I796
sS'p.m.'
p637
I985
sS'everything'
p638
I1155
sS'asking'
p639
I2024
sS'steps'
p640
I2343
sS'christmas'
p641
I1614
sS'booking'
p642
I2616
sS'beers'
p643
I2601
sS'marketing'
p644
I2480
sS'corn'
p645
I1369
sS'six-'
p646
I1006
sS'buffet'
p647
I2588
sS'post'
p648
I1083
sS'super'
p649
I1837
sS'proceed'
p650
I2375
sS'plug'
p651
I2515
sS'dollars'
p652
I319
sS'months'
p653
I449
sS'o'
I528
sS'alligator'
p654
I1830
sS'magazine'
p655
I769
sS'plus'
p656
I1074
sS'afternoon'
p657
I824
sS'islands'
p658
I195
sS'slightly'
p659
I2660
sS'hospital'
p660
I620
sS'material'
p661
I2496
sS'low-'
p662
I2100
sS'bound'
p663
I1464
sS'bath'
p664
I982
sS'down'
p665
I22
sS'handbag'
p666
I623
sS'carafe'
p667
I538
sS'magazines'
p668
I1383
sS'wrap'
p669
I44
sS'cafeteria'
p670
I1865
sS'east'
p671
I2222
sS'crowd'
p672
I2243
sS'support'
p673
I1587
sS'tennis'
p674
I65
sS'class'
p675
I829
sS'absolutely'
p676
I2810
sS'sitter'
p677
I2730
sS'way'
p678
I175
sS'obliged'
p679
I2643
sS'jane'
p680
I1295
sS'music'
p681
I598
sS'was'
p682
I49
sS'war'
p683
I2508
sS'happy'
p684
I539
sS'fork'
p685
I1729
sS'head'
p686
I1617
sS'medium'
p687
I1570
sS'form'
p688
I309
sS'offer'
p689
I767
sS'so-'
p690
I547
sS'remover'
p691
I1415
sS'landing'
p692
I930
sS'ford'
p693
I608
sS'hear'
p694
I1344
sS'stand'
p695
I470
sS'true'
p696
I1918
sS'congratulations'
p697
I739
sS'limousine'
p698
I1404
sS'inside'
p699
I1025
sS'darker'
p700
I3076
sS'bargain'
p701
I1682
sS'boss'
p702
I2558
sS'tell'
p703
I206
sS'whiskey'
p704
I1777
sS'average'
p705
I1872
sS'<unk>'
p706
I73
sS'trim'
p707
I1363
sS'passenger'
p708
I1672
sS'napkin'
p709
I1193
sS'unleaded'
p710
I2266
sS'upset'
p711
I1816
sS'hungry'
p712
I1263
sS'sometime'
p713
I2176
sS'ship'
p714
I1684
sS'dent'
p715
I2816
sS'trip'
p716
I744
sS'pipe'
p717
I1938
sS'floor'
p718
I1048
sS'tip'
p719
I910
sS'actor'
p720
I275
sS'interested'
p721
I622
sS'papers'
p722
I2142
sS'test'
p723
I2896
sS'tie'
p724
I645
sS'depot'
p725
I1543
sS'smell'
p726
I2296
sS'roll'
p727
I2107
sS'picture'
p728
I474
sS"'s"
p729
I20
sS'brothers'
p730
I1298
sS'models'
p731
I1418
sS'surprise'
p732
I2873
sS'welcome'
p733
I1246
sS'diet'
p734
I1351
sS"'d"
p735
I116
sS"'m"
p736
I169
sS'aware'
p737
I2705
sS'weekend'
p738
I1068
sS'jones'
p739
I1052
sS'younger'
p740
I1708
sS'longer'
p741
I2014
sS'glass'
p742
I1315
sS'memorial'
p743
I2423
sS'together'
p744
I475
sS'jacket'
p745
I1077
sS'reception'
p746
I894
sS'time'
p747
I84
sS'push'
p748
I2868
sS'serious'
p749
I76
sS'parcels'
p750
I2991
sS'shop'
p751
I303
sS'coach'
p752
I1637
sS'dance'
p753
I2203
sS'skis'
p754
I2861
sS'excellent'
p755
I2233
sS'madison'
p756
I2736
sS'manager'
p757
I1336
sS'mile'
p758
I1168
sS'skiing'
p759
I1788
sS'chair'
p760
I709
sS'milk'
p761
I1320
sS'row'
p762
I1541
sS'certainly'
p763
I446
sS'grape'
p764
I1367
sS'flash'
p765
I1429
sS'father'
p766
I2297
sS'charge'
p767
I477
sS'okada'
p768
I2446
sS'marks'
p769
I2710
sS'melon'
p770
I2120
sS'shoot'
p771
I682
sS'keeping'
p772
I2908
sS'choice'
p773
I362
sS'liability'
p774
I2147
sS'vegas'
p775
I1973
sS'cook'
p776
I1056
sS'locked'
p777
I888
sS'trouble'
p778
I1721
sS'exact'
p779
I1260
sS'minute'
p780
I1714
sS'cool'
p781
I1326
sS'immediately'
p782
I1864
sS'policeman'
p783
I1038
sS'did'
p784
I478
sS'fragile'
p785
I2338
sS'proposals'
p786
I1618
sS'gun'
p787
I828
sS'gum'
p788
I1040
sS'good-'
p789
I892
sS'leave'
p790
I833
sS'item'
p791
I840
sS'settle'
p792
I729
sS'subway'
p793
I536
sS'team'
p794
I2174
sS'quick'
p795
I751
sS'guy'
p796
I1581
sS'round'
p797
I743
sS'shave'
p798
I2574
sS'upper'
p799
I2545
sS'pork'
p800
I2392
sS'drier'
p801
I1261
sS'says'
p802
I1711
sS'temples'
p803
I2690
sS'literature'
p804
I2742
sS'sign'
p805
I638
sS'cost'
p806
I1267
sS'hair-'
p807
I1792
sS'shirts'
p808
I1276
sS'eating'
p809
I2279
sS'stole'
p810
I2079
sS'rough'
p811
I2687
sS'drinks'
p812
I766
sS'headset'
p813
I2867
sS'boats'
p814
I3018
sS'stands'
p815
I1551
sS'assistance'
p816
I2166
sS'remain'
p817
I3067
sS'current'
p818
I2066
sS'goes'
p819
I9
sS'international'
p820
I758
sS'sweaters'
p821
I2159
sS'filled'
p822
I2139
sS'transportation'
p823
I2309
sS'slower'
p824
I2526
sS'french'
p825
I215
sS'understanding'
p826
I954
sS'water'
p827
I942
sS'corporation'
p828
I2992
sS'slow'
p829
I450
sS'baseball'
p830
I128
sS'twentieth'
p831
I2335
sS'groups'
p832
I2385
sS'address'
p833
I89
sS'alone'
p834
I2189
sS'along'
p835
I2063
sS'rent-'
p836
I1686
sS'teacher'
p837
I1361
sS'change'
p838
I290
sS'wait'
p839
I469
sS'box'
p840
I511
sS'passengers'
p841
I1235
sS'thirty'
p842
I249
sS'discount'
p843
I1434
sS'example'
p844
I3095
sS'bangs'
p845
I1633
sS'suggestion'
p846
I1935
sS'usually'
p847
I104
sS'bob'
p848
I3111
sS'nylon'
p849
I1279
sS'pillow'
p850
I1913
sS'massage'
p851
I2459
sS'love'
p852
I439
sS'extra'
p853
I321
sS'prefer'
p854
I346
sS'marked'
p855
I2370
sS'market'
p856
I607
sS'hotels'
p857
I1490
sS'baby'
p858
I979
sS'streetcar'
p859
I2751
sS'working'
p860
I1765
sS'sake'
p861
I998
sS'angry'
p862
I1561
sS'visit'
p863
I664
sS'perm'
p864
I419
sS'france'
p865
I256
sS'live'
p866
I742
sS'wood'
p867
I3098
sS'wondering'
p868
I1590
sS'films'
p869
I2691
sS'francs'
p870
I216
sS'gift-'
p871
I1890
sS'checkout'
p872
I1889
sS'today'
p873
I130
sS'aspirin'
p874
I2827
sS'soft-'
p875
I2426
sS'entrance'
p876
I1733
sS'strap'
p877
I2779
sS'conductor'
p878
I1567
sS'club'
p879
I1495
sS'flying'
p880
I2622
sS'cashier'
p881
I565
sS'refrain'
p882
I1748
sS'chocolate'
p883
I2513
sS'downtown'
p884
I1231
sS'three-'
p885
I1000
sS'everywhere'
p886
I2030
sS'cases'
p887
I1520
sS'bourbon'
p888
I2462
sS'and-'
p889
I74
sS'autumn'
p890
I2961
sS'tokyo'
p891
I447
sS'car'
p892
I238
sS'originally'
p893
I1975
sS'cap'
p894
I2273
sS'flu'
p895
I1120
sS'cat'
p896
I1553
sS'wallet'
p897
I971
sS'can'
p898
I3
sS'following'
p899
I2599
sS'cab'
p900
I1522
sS'arrive'
p901
I976
sS'coral'
p902
I1640
sS'claim'
p903
I308
sS'crazy'
p904
I2395
sS'earphone'
p905
I2256
sS'figure'
p906
I1848
sS'december'
p907
I507
sS'agent'
p908
I2123
sS'soup'
p909
I1021
sS'heard'
p910
I88
sS'dropped'
p911
I1623
sS'allowed'
p912
I810
sS'eight-'
p913
I2336
sS'clothing'
p914
I484
sS'pink'
p915
I1920
sS'savoy'
p916
I2863
sS'winter'
p917
I2802
sS'suitcases'
p918
I1885
sS'dinner'
p919
I650
sS'write'
p920
I288
sS'till'
p921
I984
sS'sunday'
p922
I1964
sS'vancouver'
p923
I2561
sS'fourth'
p924
I1200
sS'pins'
p925
I2720
sS'coleman'
p926
I2029
sS'speaks'
p927
I795
sS'economy'
p928
I2253
sS'map'
p929
I193
sS'staying'
p930
I111
sS'designer'
p931
I2799
sS'laundry'
p932
I1560
sS'mat'
p933
I2013
sS'cocktail'
p934
I2245
sS'huge'
p935
I1886
sS'may'
p936
I401
sS'dive'
p937
I2485
sS'eighty'
p938
I1671
sS'birthday'
p939
I2319
sS'date'
p940
I944
sS'such'
p941
I1172
sS'guys'
p942
I3017
sS'eighth'
p943
I2704
sS'man'
p944
I775
sS'surfing'
p945
I2884
sS'natural'
p946
I390
sS'waist'
p947
I593
sS'johnson'
p948
I2962
sS'whenever'
p949
I2870
sS'maybe'
p950
I1911
sS'wheelchair'
p951
I2726
sS'switch'
p952
I1102
sS'so'
p953
I233
sS'deposit'
p954
I510
sS'swollen'
p955
I1804
sS'basket'
p956
I1992
sS'tall'
p957
I2330
sS'increase'
p958
I3042
sS'pulled'
p959
I2891
sS'talk'
p960
I1512
sS'typical'
p961
I1594
sS'refund'
p962
I805
sS'cute'
p963
I2281
sS'serving'
p964
I1826
sS'shoes'
p965
I400
sS'repair'
p966
I915
sS'haircut'
p967
I1223
sS'midnight'
p968
I3109
sS'years'
p969
I1194
sS'course'
p970
I102
sS'tablets'
p971
I438
sS'terrace'
p972
I2719
sS'shake'
p973
I2363
sS'cold'
p974
I458
sS'still'
p975
I718
sS'cola'
p976
I1488
sS'police'
p977
I734
sS'thank'
p978
I465
sS'hors'
p979
I2631
sS'interesting'
p980
I1866
sS'appetizers'
p981
I1413
sS'amazing'
p982
I2931
sS'forms'
p983
I2985
sS'platform'
p984
I684
sS'window'
p985
I56
sS'according'
p986
I2440
sS'policy'
p987
I2218
sS'mail'
p988
I318
sS'main'
p989
I1629
sS'happened'
p990
I386
sS'tonic'
p991
I2734
sS'matches'
p992
I702
sS'introduce'
p993
I2020
sS'records'
p994
I946
sS'disneyland'
p995
I2019
sS'half'
p996
I797
sS'arriving'
p997
I871
sS'now'
p998
I29
sS'hall'
p999
I23
sS'snorkeling'
p1000
I1431
sS'name'
p1001
I310
sS'opera'
p1002
I329
sS'january'
p1003
I1483
sS'drop'
p1004
I1131
sS'bandage'
p1005
I3053
sS'fisherman'
p1006
I2171
sS'rock'
p1007
I721
sS'quarter'
p1008
I1510
sS'repaired'
p1009
I2192
sS'concerts'
p1010
I1054
sS'individually'
p1011
I1306
sS'square'
p1012
I653
sS'mexico'
p1013
I2559
sS'receipt'
p1014
I135
sS'yeah'
p1015
I1244
sS'soy'
p1016
I2825
sS'year'
p1017
I1113
sS'happen'
p1018
I487
sS'worried'
p1019
I1593
sS'pills'
p1020
I2916
sS'amusement'
p1021
I2495
sS'tried'
p1022
I2153
sS'canada'
p1023
I1952
sS'living'
p1024
I2511
sS'shown'
p1025
I1660
sS'watanabe'
p1026
I752
sS'space'
p1027
I461
sS'factory'
p1028
I2837
sS'looking'
p1029
I186
sS'seriously'
p1030
I221
sS'opener'
p1031
I1838
sS'showy'
p1032
I2998
sS'kent'
p1033
I826
sS'internet'
p1034
I1812
sS'correct'
p1035
I1940
sS'shows'
p1036
I788
sS'e-'
p1037
I1180
sS'earlier'
p1038
I1093
sS'state'
p1039
I2132
sS'cars'
p1040
I1941
sS'million'
p1041
I2413
sS'seventh'
p1042
I515
sS'possibility'
p1043
I1426
sS'quite'
p1044
I670
sS'california'
p1045
I1128
sS'besides'
p1046
I2576
sS'cough'
p1047
I1814
sS'marine'
p1048
I2129
sS'seventy'
p1049
I1969
sS'card'
p1050
I525
sS'care'
p1051
I297
sS'advance'
p1052
I182
sS'language'
p1053
I2165
sS'waiter'
p1054
I921
sS'hong'
p1055
I3032
sS'british'
p1056
I1651
sS'honest'
p1057
I2621
sS'turn'
p1058
I285
sS'place'
p1059
I365
sS'aboard'
p1060
I1916
sS'styles'
p1061
I3008
sS'promotion'
p1062
I2832
sS'star'
p1063
I2651
sS'think'
p1064
I359
sS'first'
p1065
I83
sS'cheese'
p1066
I1305
sS'ballpoint'
p1067
I2674
sS'initial'
p1068
I2527
sS'madam'
p1069
I2604
sS'waves'
p1070
I2918
sS'yourself'
p1071
I704
sS'long'
p1072
I240
sS'directly'
p1073
I2735
sS'carry'
p1074
I384
sS'impossible'
p1075
I2479
sS'sounds'
p1076
I1422
sS'drove'
p1077
I372
sS'open'
p1078
I136
sS'tomorrow'
p1079
I432
sS'size'
p1080
I464
sS'rented'
p1081
I1435
sS'city'
p1082
I18
sS'given'
p1083
I1197
sS'checked'
p1084
I1142
sS'district'
p1085
I846
sS'stuck'
p1086
I2871
sS'caught'
p1087
I1119
sS'seventy-'
p1088
I2018
sS'plastic'
p1089
I1417
sS'anyone'
p1090
I1024
sS'twenties'
p1091
I1407
sS'draft'
p1092
I2420
sS'carousel'
p1093
I3077
sS'convention'
p1094
I1728
sS'white'
p1095
I265
sS'drugstore'
p1096
I98
sS'filter'
p1097
I1931
sS'speaking'
p1098
I1290
sS'gives'
p1099
I2366
sS'eyes'
p1100
I410
sS'mostly'
p1101
I2377
sS'that'
p1102
I8
sS'season'
p1103
I101
sS'huh'
p1104
I1923
sS'gin'
p1105
I1930
sS'copy'
p1106
I1360
sS'holder'
p1107
I1554
sS'than'
p1108
I481
sS'population'
p1109
I1877
sS'wide'
p1110
I138
sS'television'
p1111
I1723
sS'unfortunately'
p1112
I958
sS'crowded'
p1113
I2244
sS'airmail'
p1114
I1776
sS'midtown'
p1115
I2941
sS'r'
I1389
sS'knives'
p1116
I2428
sS'apples'
p1117
I1574
sS'were'
p1118
I330
sS'cards'
p1119
I1357
sS'scuba'
p1120
I1400
sS'and'
p1121
I42
sS'san'
p1122
I633
sS'parking'
p1123
I1996
sS'turned'
p1124
I1247
sS'overnight'
p1125
I2429
sS'say'
p1126
I568
sS'round-'
p1127
I1986
sS'rent'
p1128
I505
sS'breakfast'
p1129
I143
sS'recover'
p1130
I2241
sS'occupied'
p1131
I1549
sS'any'
p1132
I127
sS'hawaiian'
p1133
I1595
sS'cigarettes'
p1134
I1385
sS'sending'
p1135
I2532
sS'ideas'
p1136
I1619
sS'zoo'
p1137
I2722
sS'note'
p1138
I1444
sS'dining'
p1139
I1287
sS'mr.'
p1140
I227
sS'take'
p1141
I41
sS'thermometer'
p1142
I2778
sS'performance'
p1143
I1333
sS'channel'
p1144
I977
sS'begin'
p1145
I2883
sS'sure'
p1146
I689
sS'pain'
p1147
I93
sS'theatre'
p1148
I2329
sS'opposite'
p1149
I1362
sS'track'
p1150
I1563
sS'price'
p1151
I937
sS'enter'
p1152
I1709
sS'paid'
p1153
I179
sS'falls'
p1154
I1506
sS'printed'
p1155
I2697
sS'sheets'
p1156
I2551
sS'pair'
p1157
I1531
sS'america'
p1158
I480
sS'especially'
p1159
I2293
sS'refunds'
p1160
I1217
sS'egg'
p1161
I2436
sS'seafood'
p1162
I1805
sS'later'
p1163
I618
sS'sale'
p1164
I649
sS'tooth'
p1165
I1173
sS'soho'
p1166
I2417
sS'stockings'
p1167
I947
sS'professional'
p1168
I2653
sS'senior'
p1169
I2456
sS'salt'
p1170
I1118
sS'width'
p1171
I3011
sS'slope'
p1172
I887
sS'walking'
p1173
I2425
sS'otherwise'
p1174
I3116
sS'shot'
p1175
I1403
sS'show'
p1176
I600
sS'german'
p1177
I1335
sS'cheap'
p1178
I868
sS'salon'
p1179
I2629
sS'fifty'
p1180
I473
sS'shoe'
p1181
I1654
sS'pump'
p1182
I2011
sS'corner'
p1183
I151
sS'forecast'
p1184
I2441
sS'injection'
p1185
I2289
sS'fifth'
p1186
I506
sS'ground'
p1187
I2249
sS'slot'
p1188
I811
sS'snack'
p1189
I582
sS'discounts'
p1190
I2609
sS'daily'
p1191
I1773
sS'cheeseburger'
p1192
I694
sS'outside'
p1193
I832
sS'junior'
p1194
I2457
sS'only'
p1195
I865
sS'going'
p1196
I348
sS'black'
p1197
I1782
sS'stain'
p1198
I2101
sS'wool'
p1199
I2820
sS'get'
p1200
I146
sS'jazz'
p1201
I2952
sS'cannot'
p1202
I716
sS'lighter'
p1203
I223
sS'prime'
p1204
I3082
sS'regarding'
p1205
I2263
sS'artist'
p1206
I2060
sS'leather'
p1207
I1003
sS'seldom'
p1208
I107
sS'borrow'
p1209
I1039
sS'morning'
p1210
I443
sS'miles'
p1211
I777
sS'bought'
p1212
I201
sS'where'
p1213
I139
sS'husband'
p1214
I2231
sS'picnic'
p1215
I2796
sS'concert'
p1216
I1468
sS'ms.'
p1217
I2005
sS'eighteenth'
p1218
I3016
sS'seat'
p1219
I165
sS'cologne'
p1220
I1694
sS'college'
p1221
I1146
sS'overflowed'
p1222
I1957
sS'calendar'
p1223
I2806
sS'sport'
p1224
I167
sS'wonder'
p1225
I1253
sS'fifteen-'
p1226
I2890
sS'camping'
p1227
I2881
sS'sites'
p1228
I2461
sS'materials'
p1229
I1603
sS'enough'
p1230
I466
sS'between'
p1231
I816
sS'import'
p1232
I1017
sS'reading'
p1233
I1310
sS'checks'
p1234
I849
sS'jumper'
p1235
I1780
sS'arrival'
p1236
I2422
sS'notice'
p1237
I1088
sS'jobs'
p1238
I2438
sS'august'
p1239
I1085
sS'screen'
p1240
I2380
sS'jr'
p1241
I1250
sS'jl'
p1242
I2907
sS'spare'
p1243
I1283
sS'supermarket'
p1244
I2023
sS'sea-'
p1245
I1955
sS'hurts'
p1246
I1099
sS'article'
p1247
I2475
sS'tub'
p1248
I1956
sS'cities'
p1249
I2103
sS'come'
p1250
I174
sS'coupons'
p1251
I2989
sS'postage'
p1252
I1750
sS'dates'
p1253
I1011
sS'check-'
p1254
I837
sS'embarkation'
p1255
I2169
sS'many'
p1256
I407
sS'japanese-'
p1257
I493
sS'quiet'
p1258
I187
sS'contract'
p1259
I1355
sS'restroom'
p1260
I2669
sS'somewhere'
p1261
I1028
sS'tour'
p1262
I578
sS'comes'
p1263
I361
sS'nearby'
p1264
I897
sS'duty'
p1265
I2194
sS'among'
p1266
I1652
sS'color'
p1267
I100
sS'pot'
p1268
I981
sS'jeans'
p1269
I2580
sS'period'
p1270
I662
sS'pop'
p1271
I1988
sS'twin'
p1272
I119
sS'medication'
p1273
I3006
sS'four-'
p1274
I1630
sS'learning'
p1275
I2700
sS'cancel'
p1276
I801
sS'writing'
p1277
I2876
sS'cokes'
p1278
I2923
sS'boat'
p1279
I325
sS'turkey'
p1280
I2902
sS'symptoms'
p1281
I1961
sS'unusual'
p1282
I1583
sS'toothpaste'
p1283
I2302
sS'airlines'
p1284
I673
sS'mark'
p1285
I1702
sS'hardly'
p1286
I2276
sS'mary'
p1287
I232
sS'engine'
p1288
I1058
sS'direction'
p1289
I1280
sS'shopping'
p1290
I610
sS'robbed'
p1291
I2510
sS'thousand'
p1292
I357
sS'narita'
p1293
I1221
sS'photos'
p1294
I2804
sS'wake'
p1295
I1649
sS'minister'
p1296
I2270
sS'declaration'
p1297
I2566
sS'careful'
p1298
I2618
sS'those'
p1299
I551
sS'case'
p1300
I103
sS'myself'
p1301
I889
sS'kimura'
p1302
I2842
sS'developing'
p1303
I2921
sS'these'
p1304
I154
sS'sauce'
p1305
I2801
sS'mount'
p1306
I2539
sS'chinatown'
p1307
I2812
sS'cash'
p1308
I257
sS'alter'
p1309
I2714
sS"n't"
p1310
I121
sS'pizza'
p1311
I1757
sS'residence'
p1312
I3071
sS'newspaper'
p1313
I1730
sS'situation'
p1314
I1802
sS'shops'
p1315
I956
sS'aperitif'
p1316
I1508
sS'taking'
p1317
I395
sS'purse'
p1318
I1286
sS'coffee'
p1319
I220
sS'assortment'
p1320
I3020
sS'sleeping'
p1321
I1981
sS'sprained'
p1322
I1833
sS'middle'
p1323
I1134
sS'good'
p1324
I442
sS'stewardess'
p1325
I2731
sS'heels'
p1326
I2135
sS'somebody'
p1327
I1580
sS'toothache'
p1328
I1390
sS'technology'
p1329
I2305
sS'everyday'
p1330
I1154
sS'worry'
p1331
I39
sS'bags'
p1332
I1220
sS'different'
p1333
I271
sS'develop'
p1334
I2106
sS'doctor'
p1335
I661
sS'inquire'
p1336
I2357
sS'pay'
p1337
I523
sS'nail'
p1338
I1414
sS'coke'
p1339
I1433
sS's'
I2196
sS'same'
p1340
I695
sS'check'
p1341
I260
sS'gentlemen'
p1342
I1736
sS'speech'
p1343
I382
sS'a.m.'
p1344
I1226
sS'events'
p1345
I2750
sS'kyushu'
p1346
I606
sS'week'
p1347
I455
sS'finish'
p1348
I1439
sS'closest'
p1349
I619
sS'singapore'
p1350
I962
sS'driver'
p1351
I1114
sS'companion'
p1352
I2291
sS'persons'
p1353
I1213
sS'running'
p1354
I1445
sS'fruit'
p1355
I563
sS'barber'
p1356
I1405
sS'statue'
p1357
I1891
sS'changing'
p1358
I2136
sS'indigestion'
p1359
I2057
sS'quartz'
p1360
I2301
sS'drain'
p1361
I2572
sS'theater'
p1362
I686
sS'charges'
p1363
I181
sS'no'
p1364
I38
sS'severe'
p1365
I1784
sS'without'
p1366
I654
sS'flakes'
p1367
I1370
sS'bottle'
p1368
I839
sS'trains'
p1369
I1205
sS'very'
p1370
I460
sS'model'
p1371
I1960
sS'allowance'
p1372
I2814
sS'taxi'
p1373
I467
sS'summer'
p1374
I904
sS'manicure'
p1375
I2278
sS'being'
p1376
I546
sS'money'
p1377
I1214
sS'sights'
p1378
I374
sS'rest'
p1379
I929
sS'foot'
p1380
I1339
sS'kill'
p1381
I2187
sS'ounces'
p1382
I1321
sS'touch'
p1383
I1564
sS'polish'
p1384
I2678
sS'speed'
p1385
I1471
sS'guides'
p1386
I2701
sS'weekly'
p1387
I1312
sS'announcement'
p1388
I1242
sS'sixteen'
p1389
I2118
sS'asthma'
p1390
I356
sS'thinking'
p1391
I1589
sS'rose'
p1392
I2234
sS'shrines'
p1393
I1112
sS'seems'
p1394
I774
sS'except'
p1395
I1249
sS'confirmed'
p1396
I2670
sS'setting'
p1397
I2324
sS'treatment'
p1398
I733
sS'samples'
p1399
I2980
sS'plenty'
p1400
I2047
sS'pill'
p1401
I2940
sS'real'
p1402
I932
sS'n-'
p1403
I2994
sS'tax-'
p1404
I2000
sS'around'
p1405
I90
sS'read'
p1406
I860
sS'mugged'
p1407
I2831
sS'stung'
p1408
I3015
sS'fridge'
p1409
I2311
sS'gonna'
p1410
I2186
sS'sumo'
p1411
I491
sS'traffic'
p1412
I1647
sS'darn'
p1413
I2975
sS'listening'
p1414
I381
sS'world'
p1415
I1240
sS'railroad'
p1416
I2145
sS'cd'
p1417
I1745
sS'lady'
p1418
I1977
sS'rear'
p1419
I1103
sS'furniture'
p1420
I2654
sS'vending'
p1421
I1273
sS'stranger'
p1422
I939
sS'pounds'
p1423
I725
sS'postcard'
p1424
I785
sS'pregnant'
p1425
I3066
sS'fishing'
p1426
I1502
sS'greeting'
p1427
I2282
sS'serves'
p1428
I2788
sS"'ve"
p1429
I86
sS'facing'
p1430
I1375
sS'either'
p1431
I993
sS'robbery'
p1432
I677
sS'fully'
p1433
I1613
sS'served'
p1434
I1308
sS'tower'
p1435
I1109
sS'making'
p1436
I1712
sS'twelve'
p1437
I437
sS'seating'
p1438
I2568
sS'nauseous'
p1439
I2648
sS'fives'
p1440
I1409
sS'doll'
p1441
I3028
sS'pickled'
p1442
I1881
sS'pacific'
p1443
I198
sS'lobster'
p1444
I1835
sS'second-'
p1445
I1524
sS'diving'
p1446
I85
sS'pickles'
p1447
I1277
sS'o-'
p1448
I2254
sS'slice'
p1449
I2563
sS'confirm'
p1450
I2454
sS'tube'
p1451
I1775
sS'token'
p1452
I2451
sS'stops'
p1453
I790
sS'moon'
p1454
I2785
sS'exit'
p1455
I1870
sS'station-'
p1456
I3005
sS'recorder'
p1457
I2097
sS'porter'
p1458
I1132
sS'football'
p1459
I1147
sS'wheat'
p1460
I269
sS'reasonable'
p1461
I1256
sS'business'
p1462
I106
sS'airways'
p1463
I2777
sS'seconds'
p1464
I1698
sS'kyoto'
p1465
I965
sS'nails'
p1466
I2679
sS'tuition'
p1467
I3059
sS'broken'
p1468
I609
sS'm-'
p1469
I2988
sS'sixty'
p1470
I1847
sS'exciting'
p1471
I2188
sS'manufacturer'
p1472
I3049
sS'on'
p1473
I105
sS'stone'
p1474
I544
sS'central'
p1475
I428
sS'stations'
p1476
I789
sS'of'
p1477
I60
sS'industry'
p1478
I555
sS'favorite'
p1479
I596
sS'side'
p1480
I273
sS'gums'
p1481
I459
sS'journey'
p1482
I1703
sS'airline'
p1483
I1035
sS'west'
p1484
I2596
sS'mixed'
p1485
I286
sS'luck'
p1486
I1950
sS'or'
p1487
I267
sS'road'
p1488
I698
sS'heater'
p1489
I3039
sS'ladies'
p1490
I855
sS'coupon'
p1491
I1352
sS'vacation'
p1492
I685
sS'parties'
p1493
I2534
sS'operator'
p1494
I936
sS'valuable'
p1495
I3022
sS'your'
p1496
I78
sS'upstairs'
p1497
I2264
sS'prepare'
p1498
I1259
sS'area'
p1499
I922
sS'there'
p1500
I16
sS'hey'
p1501
I1665
sS'sides'
p1502
I2894
sS'start'
p1503
I792
sS'cats'
p1504
I301
sS'low'
p1505
I838
sS'lot'
p1506
I229
sS'fish'
p1507
I577
sS'allergic'
p1508
I1547
sS'spicy'
p1509
I2206
sS'complete'
p1510
I764
sS'delayed'
p1511
I675
sS'tripod'
p1512
I2974
sS'beginners'
p1513
I883
sS'bookstore'
p1514
I2439
sS'curtain'
p1515
I2898
sS'trying'
p1516
I1015
sS'with'
p1517
I159
sS'buying'
p1518
I2807
sS'faster'
p1519
I2128
sS'pull'
p1520
I2584
sS'hire'
p1521
I986
sS'october'
p1522
I498
sS'romantic'
p1523
I1255
sS'potato'
p1524
I691
sS'strawberry'
p1525
I2285
sS'dirty'
p1526
I1947
sS'suitcase'
p1527
I306
sS'trips'
p1528
I604
sS'expect'
p1529
I2614
sS'wants'
p1530
I424
sS'cartons'
p1531
I1937
sS'cinema'
p1532
I1978
sS'exhausted'
p1533
I1605
sS'ah'
p1534
I791
sS'describe'
p1535
I2661
sS'am'
p1536
I994
sS'sales'
p1537
I1586
sS'deep'
p1538
I1615
sS'general'
p1539
I1139
sS'alarm'
p1540
I799
sS'as'
p1541
I209
sS'tasty'
p1542
I2728
sS'at'
p1543
I124
sS'file'
p1544
I2595
sS'hobbies'
p1545
I2212
sS'girlfriend'
p1546
I2826
sS'horse'
p1547
I3115
sS'portland'
p1548
I2999
sS'film'
p1549
I738
sS'fill'
p1550
I574
sS'again'
p1551
I311
sS'cooked'
p1552
I2768
sS'drivers'
p1553
I2328
sS'diarrhea'
p1554
I1785
sS'graduate'
p1555
I2144
sS'rubber'
p1556
I2228
sS'tight'
p1557
I114
sS'valid'
p1558
I975
sS'you'
p1559
I27
sS'coughing'
p1560
I2362
sS'poor'
p1561
I1402
sS'requested'
p1562
I162
sS'separate'
p1563
I1440
sS'students'
p1564
I2074
sS'teeth'
p1565
I2468
sS'a-'
p1566
I1687
sS'self-'
p1567
I1794
sS'carnegie'
p1568
I2829
sS'includes'
p1569
I1525
sS'gifts'
p1570
I1163
sS'brandy'
p1571
I1929
sS'important'
p1572
I1359
sS'coverage'
p1573
I2493
sS'fasten'
p1574
I1738
sS'included'
p1575
I1293
sS'pool'
p1576
I2557
sS'lipstick'
p1577
I1428
sS'building'
p1578
I1239
sS'booked'
p1579
I1463
sS'calls'
p1580
I1648
sS'wife'
p1581
I1067
sS'mask'
p1582
I2369
sS'having'
p1583
I1539
sS'passed'
p1584
I2948
sS'u'
I1388
sS'drank'
p1585
I2845
sS'directory'
p1586
I2695
sS'overseas'
p1587
I935
sS'deluxe'
p1588
I1371
sS'starting'
p1589
I2002
sS'represent'
p1590
I2963
sS'all'
p1591
I225
sS'consider'
p1592
I1425
sS'chinese'
p1593
I717
sS'ale'
p1594
I1275
sS'dollar'
p1595
I259
sS'month'
p1596
I1073
sS'tours'
p1597
I759
sS'bulb'
p1598
I2536
sS'dish'
p1599
I898
sS'follow'
p1600
I335
sS'children'
p1601
I304
sS'apartment'
p1602
I1811
sS'duty-'
p1603
I1323
sS'tv'
p1604
I658
sS'cloudy'
p1605
I2969
sS'thursday'
p1606
I302
sS'to'
p1607
I10
sS'program'
p1608
I1813
sS'robber'
p1609
I1781
sS'dressing'
p1610
I456
sS'health'
p1611
I502
sS'enjoying'
p1612
I2481
sS'paying'
p1613
I1420
sS'fax'
p1614
I1526
sS'woman'
p1615
I2773
sS'appointment'
p1616
I1023
sS'parcel'
p1617
I1071
sS'returning'
p1618
I1822
sS'far'
p1619
I422
sS'tent'
p1620
I1959
sS'fat'
p1621
I1161
sS'ichiro'
p1622
I951
sS'fan'
p1623
I2262
sS'decide'
p1624
I1349
sS'fall'
p1625
I2843
sS'ticket'
p1626
I745
sS'difference'
p1627
I815
sS'ramen'
p1628
I2683
sS'condition'
p1629
I2603
sS'cable'
p1630
I2012
sS'list'
p1631
I821
sS'mild'
p1632
I2067
sS'large'
p1633
I1756
sS'adjust'
p1634
I1657
sS'small'
p1635
I851
sS'throbbing'
p1636
I2882
sS'cookies'
p1637
I293
sS'neighborhood'
p1638
I2505
sS'portable'
p1639
I2095
sS'ten'
p1640
I692
sS'tea'
p1641
I706
sS'streets'
p1642
I2059
sS'past'
p1643
I1151
sS'burger'
p1644
I287
sS'zero'
p1645
I320
sS'design'
p1646
I1087
sS'lawyer'
p1647
I3113
sS'pass'
p1648
I132
sS'further'
p1649
I1424
sS'casual'
p1650
I1997
sS'ribbon'
p1651
I1282
sS'what'
p1652
I99
sS'abc'
p1653
I1046
sS'consumers'
p1654
I2677
sS'clock'
p1655
I800
sS'deeply'
p1656
I2553
sS'section'
p1657
I279
sS'nurse'
p1658
I2519
sS'public'
p1659
I1646
sS'full'
p1660
I343
sS'tags'
p1661
I2374
sS'loose'
p1662
I1482
sS'venice'
p1663
I1232
sS'vomiting'
p1664
I1270
sS'hours'
p1665
I244
sS'cancelled'
p1666
I2004
sS'trunk'
p1667
I2333
sS'directions'
p1668
I1936
sS'november'
p1669
I2600
sS'strong'
p1670
I1086
sS'breakable'
p1671
I2339
sS'colored'
p1672
I2853
sS'ahead'
p1673
I440
sS'houses'
p1674
I2791
sS'vegetarian'
p1675
I2686
sS'reason'
p1676
I2756
sS'experience'
p1677
I1069
sS'prior'
p1678
I1737
sS'airport'
p1679
I170
sS'professor'
p1680
I3052
sS'pick'
p1681
I378
sS'action'
p1682
I1443
sS'narrow'
p1683
I1854
sS'suntan'
p1684
I1860
sS'via'
p1685
I3118
sS'depart'
p1686
I2922
sS'family'
p1687
I2239
sS'buses'
p1688
I1545
sS'suddenly'
p1689
I1532
sS'transit'
p1690
I1841
sS'cosmetic'
p1691
I3080
sS'capital'
p1692
I2445
sS'ask'
p1693
I628
sS'appliances'
p1694
I867
sS'toys'
p1695
I2693
sS'gosh'
p1696
I2261
sS'seventeenth'
p1697
I2512
sS'attendant'
p1698
I3112
sS'eye'
p1699
I1636
sS'takes'
p1700
I980
sS'non-'
p1701
I163
sS'destination'
p1702
I643
sS'two'
p1703
I112
sS'mori'
p1704
I1535
sS'taken'
p1705
I462
sS'markets'
p1706
I2644
sS'more'
p1707
I389
sS'flat'
p1708
I1598
sS'diamond'
p1709
I2119
sS'door'
p1710
I1030
sS'company'
p1711
I678
sS'telephone'
p1712
I178
sS'excuse'
p1713
I241
sS'broke'
p1714
I1005
sS'particular'
p1715
I1869
sS'known'
p1716
I967
sS'hurry'
p1717
I1016
sS'nineteen'
p1718
I2219
sS'glad'
p1719
I1241
sS'town'
p1720
I906
sS'grill'
p1721
I2605
sS'berth'
p1722
I2240
sS'hour'
p1723
I918
sS'mall'
p1724
I2937
sS'sudden'
p1725
I2986
sS'nine'
p1726
I527
sS'learn'
p1727
I2782
sS'take-'
p1728
I2389
sS'excursion'
p1729
I2569
sS'history'
p1730
I1602
sS'beautiful'
p1731
I562
sS'hamburger'
p1732
I693
sS'stomachache'
p1733
I2267
sS'brown'
p1734
I312
sS'closes'
p1735
I2649
sS'share'
p1736
I1689
sS'accept'
p1737
I1815
sS'states'
p1738
I1192
sS'collision'
p1739
I518
sS'minimum'
p1740
I2818
sS'numbers'
p1741
I2271
sS'purchased'
p1742
I2925
sS'sense'
p1743
I2383
sS'sharp'
p1744
I818
sS'airplane'
p1745
I2298
sS'dress'
p1746
I328
sS'hamburgers'
p1747
I2787
sS'information'
p1748
I62
sS'needs'
p1749
I1014
sS'court'
p1750
I1751
sS'terribly'
p1751
I1457
sS'rather'
p1752
I457
sS'rye'
p1753
I266
sS'enlarge'
p1754
I1674
sS'stayed'
p1755
I2950
sS'cleansing'
p1756
I2522
sS'maps'
p1757
I859
sS'centimeters'
p1758
I723
sS'plant'
p1759
I961
sS'sandwich'
p1760
I2550
sS'okay'
p1761
I67
sS'plans'
p1762
I1982
sS'advice'
p1763
I1337
sS'signature'
p1764
I2416
sS'grapefruit'
p1765
I2780
sS'catalog'
p1766
I3120
sS'plane'
p1767
I1104
sS'brands'
p1768
I2524
sS'blood'
p1769
I1914
sS'coming'
p1770
I580
sS'bloom'
p1771
I1755
sS'a'
I6
sS'short'
p1772
I2125
sS'susan'
p1773
I1296
sS'coat'
p1774
I1027
sS'register'
p1775
I1849
sS'departure'
p1776
I246
sS'anytime'
p1777
I1245
sS'chopsticks'
p1778
I2715
sS'shade'
p1779
I2048
sS'banks'
p1780
I1720
sS'pleasure'
p1781
I109
sS'taro'
p1782
I2521
sS'dream'
p1783
I1917
sS'playing'
p1784
I64
sS'ito'
p1785
I2848
sS'akiko'
p1786
I1237
sS'help'
p1787
I144
sS'september'
p1788
I1105
sS'developed'
p1789
I1697
sS'flowers'
p1790
I561
sS'soon'
p1791
I210
sS'trade'
p1792
I616
sS'held'
p1793
I1661
sS'embassy'
p1794
I1089
sS'through'
p1795
I516
sS'signs'
p1796
I1421
sS'broadway'
p1797
I2641
sS'avenue'
p1798
I125
sS'its'
p1799
I968
sS'thirtieth'
p1800
I1550
sS'style'
p1801
I494
sS'pens'
p1802
I2758
sS'overhead'
p1803
I2543
sS'flea'
p1804
I2450
sS'buddhism'
p1805
I3033
sS'abbey'
p1806
I2739
sS'actually'
p1807
I1051
sS'late'
p1808
I919
sS'shimada'
p1809
I2912
sS'peanuts'
p1810
I2585
sS'soccer'
p1811
I2275
sS'might'
p1812
I1498
sS'full-'
p1813
I2587
sS'dolls'
p1814
I1851
sS'colleague'
p1815
I2054
sS'evening'
p1816
I741
sS'return'
p1817
I1042
sS'food'
p1818
I393
sS'oka'
p1819
I2606
sS'shuttle'
p1820
I2403
sS'ninety-'
p1821
I1328
sS'oxford'
p1822
I1149
sS'bigger'
p1823
I1459
sS'instructions'
p1824
I336
sS'easily'
p1825
I2886
sS'wash'
p1826
I2353
sS'sundays'
p1827
I1591
sS'always'
p1828
I283
sS'all-'
p1829
I2170
sS'level'
p1830
I2623
sS'courses'
p1831
I1791
sS'someone'
p1832
I629
sS'stopped'
p1833
I2573
sS'found'
p1834
I781
sS'notes'
p1835
I1129
sS'heavy'
p1836
I213
sS'sterling'
p1837
I989
sS'everyone'
p1838
I1921
sS'england'
p1839
I1880
sS'delicious'
p1840
I899
sS'weight'
p1841
I1392
sS'house'
p1842
I1566
sS'thirty-'
p1843
I517
sS'hard'
p1844
I891
sS'reduce'
p1845
I3056
sS'idea'
p1846
I2499
sS'hawaii'
p1847
I1631
sS'oil'
p1848
I2315
sS'yoshida'
p1849
I3073
sS'connect'
p1850
I714
sS'operation'
p1851
I426
sS'beyond'
p1852
I1159
sS'insurance'
p1853
I522
sS'really'
p1854
I270
sS'specials'
p1855
I1783
sS'flower'
p1856
I1090
sS'alcohol'
p1857
I1338
sS'since'
p1858
I1097
sS'tempura'
p1859
I3069
sS'research'
p1860
I1446
sS'safety'
p1861
I509
sS'print'
p1862
I1675
sS'issue'
p1863
I988
sS'highway'
p1864
I793
sS'recline'
p1865
I2847
sS'friday'
p1866
I779
sS'guess'
p1867
I532
sS'pleasant'
p1868
I2150
sS'difficulty'
p1869
I398
sS'asa'
p1870
I2613
sS'base'
p1871
I2783
sS'conditioning'
p1872
I1391
sS'members'
p1873
I2407
sS'put'
p1874
I852
sS'teach'
p1875
I2342
sS'earliest'
p1876
I2022
sS'beginning'
p1877
I2637
sS'lag'
p1878
I2502
sS'guest'
p1879
I3045
sS'pairs'
p1880
I2087
sS'computers'
p1881
I1744
sS'terrible'
p1882
I2903
sS'gourmet'
p1883
I671
sS'american'
p1884
I496
sS'expecting'
p1885
I2800
sS'pure'
p1886
I2819
sS'leading'
p1887
I2909
sS'scheduled'
p1888
I2384
sS'castle'
p1889
I1494
sS'miso'
p1890
I2949
sS'major'
p1891
I1829
sS'slipped'
p1892
I2116
sS'feel'
p1893
I1269
sS'number'
p1894
I80
sS'fancy'
p1895
I2784
sS'tow'
p1896
I1643
sS'feet'
p1897
I1329
sS'done'
p1898
I1057
sS'notify'
p1899
I2535
sS'fees'
p1900
I1884
sS'traveler'
p1901
I848
sS'cups'
p1902
I864
sS'miss'
p1903
I430
sS'story'
p1904
I366
sS'"'
I300
sS'temperature'
p1905
I1945
sS'jet'
p1906
I2501
sS'blossom'
p1907
I1171
sS'twenty'
p1908
I1153
sS'st.'
p1909
I2967
sS'least'
p1910
I248
sS'station'
p1911
I537
sS'statement'
p1912
I676
sS'rates'
p1913
I2435
sS'hundred'
p1914
I258
sS'pence'
p1915
I2068
sS'store'
p1916
I340
sS'headache'
p1917
I1725
sS'attendants'
p1918
I1319
sS'first-'
p1919
I1210
sS'behind'
p1920
I1759
sS'hotel'
p1921
I13
sS'park'
p1922
I429
sS'appreciation'
p1923
I2069
sS'dentist'
p1924
I2745
sS'part'
p1925
I197
sS'typhoon'
p1926
I2442
sS'word'
p1927
I1844
sS'discounted'
p1928
I3100
sS'believe'
p1929
I1222
sS'stairs'
p1930
I2399
sS'surfboard'
p1931
I2216
sS'king'
p1932
I1386
sS'kind'
p1933
I166
sS'b'
I1516
sS'kindly'
p1934
I1599
sS'pain-'
p1935
I595
sS'double'
p1936
I974
sS'grey'
p1937
I1609
sS'youth'
p1938
I3105
sS'supposed'
p1939
I1063
sS'video'
p1940
I2307
sS'taxis'
p1941
I1228
sS'exposures'
p1942
I2151
sS'treated'
p1943
I2290
sS'declare'
p1944
I2052
sS'booth'
p1945
I2154
sS'vacant'
p1946
I2567
sS'ages'
p1947
I1706
sS'juice'
p1948
I355
sS'cleaned'
p1949
I1288
sS'orders'
p1950
I2133
sS'sell'
p1951
I1993
sS'mountain'
p1952
I558
sS'breathing'
p1953
I3070
sS'nights'
p1954
I631
sS'built'
p1955
I1285
sS'dancing'
p1956
I2955
sS'itemized'
p1957
I2073
sS'scotland'
p1958
I3078
sS'k-'
p1959
I2466
sS'port'
p1960
I2771
sS'also'
p1961
I1753
sS'accessories'
p1962
I2976
sS'costs'
p1963
I313
sS'sandwiches'
p1964
I2259
sS'veal'
p1965
I1990
sS'play'
p1966
I599
sS'added'
p1967
I2473
sS'electric'
p1968
I866
sS'singles'
p1969
I1976
sS'leaking'
p1970
I2213
sS'eggs'
p1971
I427
sS'sets'
p1972
I2594
sS'salmon'
p1973
I161
sS'chart'
p1974
I1793
sS'cigarette'
p1975
I573
sS'plan'
p1976
I663
sS'eaten'
p1977
I2104
sS'nothing'
p1978
I770
sS'seasons'
p1979
I1958
sS'refrigerator'
p1980
I1601
sS'understands'
p1981
I2224
sS'mineral'
p1982
I2310
sS'performances'
p1983
I925
sS'clear'
p1984
I1203
sS'sometimes'
p1985
I1592
sS'cover'
p1986
I655
sS'traditional'
p1987
I492
sS'disembarkation'
p1988
I2565
sS'clean'
p1989
I153
sS'weigh'
p1990
I2040
sS'usual'
p1991
I2793
sS'joining'
p1992
I1081
sS'golf'
p1993
I1258
sS'gold'
p1994
I1942
sS'fond'
p1995
I2706
sS"'am"
p1996
I1010
sS'cds'
p1997
I1018
sS'carefully'
p1998
I876
sS'coaster'
p1999
I2790
sS'fine'
p2000
I1123
sS'find'
p2001
I543
sS'faces'
p2002
I2856
sS'northern'
p2003
I1951
sS'akira'
p2004
I1655
sS'ebert'
p2005
I2634
sS'flights'
p2006
I776
sS'cassette'
p2007
I588
sS'pretty'
p2008
I2102
sS'discuss'
p2009
I1925
sS'begins'
p2010
I2477
sS'his'
p2011
I177
sS'hit'
p2012
I1616
sS'waterproof'
p2013
I701
sS'express'
p2014
I1179
sS'grocery'
p2015
I2860
sS'trees'
p2016
I1170
sS'cheaper'
p2017
I264
sS'famous'
p2018
I1111
sS'capsule'
p2019
I1556
sS'fastest'
p2020
I632
sS'theft'
p2021
I1219
sS'basement'
p2022
I862
sS'during'
p2023
I559
sS'silk'
p2024
I1953
sS'him'
p2025
I570
sS'generally'
p2026
I1600
sS'batteries'
p2027
I1620
sS'remove'
p2028
I1641
sS'perfume'
p2029
I1322
sS'gloves'
p2030
I1004
sS'nakamura'
p2031
I2347
sS'gotten'
p2032
I1182
sS'x'
I2006
sS'river'
p2033
I1897
sS'gee'
p2034
I2904
sS'rooms'
p2035
I120
sS'scenery'
p2036
I2130
sS'seventeen'
p2037
I970
sS'set'
p2038
I1144
sS'art'
p2039
I872
sS'air-'
p2040
I754
sS'culture'
p2041
I2593
sS'see'
p2042
I97
sS'are'
p2043
I126
sS'sea'
p2044
I420
sS'close'
p2045
I1201
sS'arm'
p2046
I2996
sS'locals'
p2047
I2274
sS'success'
p2048
I2946
sS'project'
p2049
I2341
sS'practice'
p2050
I1588
sS'vitamins'
p2051
I1989
sS'visiting'
p2052
I1190
sS'movie'
p2053
I1350
sS'wow'
p2054
I902
sS'leg'
p2055
I1555
sS'please'
p2056
I77
sS'won'
p2057
I1513
sS'various'
p2058
I955
sS'envelopes'
p2059
I3107
sS'probably'
p2060
I1974
sS'burned'
p2061
I2398
sS'champagne'
p2062
I2284
sS'conditions'
p2063
I2642
sS'europe'
p2064
I957
sS'carbonated'
p2065
I3084
sS'recently'
p2066
I589
sS'historical'
p2067
I2156
sS'osaka'
p2068
I2252
sS'missing'
p2069
I1044
sS'sold'
p2070
I1130
sS'attention'
p2071
I963
sS'mailbox'
p2072
I2463
sS'spray'
p2073
I2320
sS'death'
p2074
I2888
sS'handbags'
p2075
I3050
sS'both'
p2076
I2226
sS'c'
I242
sS'cubes'
p2077
I3103
sS'last'
p2078
I332
sS'license'
p2079
I1115
sS'restaurant'
p2080
I189
sS'annual'
p2081
I2865
sS'event'
p2082
I2640
sS'foreign'
p2083
I1842
sS'sensitive'
p2084
I2968
sS'connection'
p2085
I953
sS'became'
p2086
I2269
sS'forgotten'
p2087
I1910
sS'whole'
p2088
I268
sS'baltimore'
p2089
I3003
sS'load'
p2090
I1597
sS'liked'
p2091
I992
sS'point'
p2092
I190
sS'battery'
p2093
I613
sS'sweet'
p2094
I1368
sS'loan'
p2095
I3063
sS'kilometers'
p2096
I2725
sS'whatever'
p2097
I2378
sS'pamphlet'
p2098
I2058
sS'church'
p2099
I1181
sS'ogawa'
p2100
I1932
sS'expensive'
p2101
I749
sS'belt'
p2102
I1739
sS'finally'
p2103
I1465
sS'cheapest'
p2104
I2851
sS'cream'
p2105
I218
sS'stamp'
p2106
I1294
sS'due'
p2107
I1500
sS'whom'
p2108
I1795
sS'reduction'
p2109
I2406
sS'maintenance'
p2110
I2615
sS'meeting'
p2111
I1800
sS'empty'
p2112
I2840
sS'attractive'
p2113
I2960
sS'flight'
p2114
I251
sS'boy'
p2115
I2039
sS'fire'
p2116
I1900
sS'gas'
p2117
I836
sS'else'
p2118
I32
sS'lives'
p2119
I1301
sS'demand'
p2120
I2162
sS'prices'
p2121
I1427
sS'instructor'
p2122
I2404
sS'consulate'
p2123
I1604
sS'plants'
p2124
I1825
sS'stolen'
p2125
I1204
sS'look'
p2126
I134
sS'raw'
p2127
I2191
sS'straight'
p2128
I95
sS'bill'
p2129
I807
sS'budget'
p2130
I471
sS'kodak'
p2131
I2497
sS'while'
p2132
I394
sS'homework'
p2133
I1926
sS'fun'
p2134
I1461
sS'guide'
p2135
I765
sS'pack'
p2136
I1519
sS'swim'
p2137
I1505
sS'pound'
p2138
I990
sS'century'
p2139
I3009
sS'cents'
p2140
I316
sS'rip'
p2141
I1995
sS'triple'
p2142
I2031
sS'ready'
p2143
I885
sS'chop'
p2144
I1991
sS'yosemite'
p2145
I2724
sS'gone'
p2146
I972
sS'aches'
p2147
I1419
sS'italy'
p2148
I2997
sS'shirt'
p2149
I1138
sS'shorten'
p2150
I592
sS'shorter'
p2151
I648
sS'rules'
p2152
I2917
sS'kimono'
p2153
I1949
sS'grand'
p2154
I490
sS'higher'
p2155
I2822
sS'used'
p2156
I1380
sS'd.c.'
p2157
I804
sS'lie'
p2158
I1710
sS'keys'
p2159
I526
sS'gallery'
p2160
I1810
sS'yesterday'
p2161
I534
sS'holidays'
p2162
I1691
sS'moment'
p2163
I934
sS'arrived'
p2164
I1466
sS'purpose'
p2165
I1533
sS'dine'
p2166
I2809
sS'sandals'
p2167
I2617
sS'early'
p2168
I1480
sS'lower'
p2169
I1061
sS'mini-'
p2170
I1372
sS'spent'
p2171
I1907
sS'person'
p2172
I624
sS'historic'
p2173
I3012
sS'english-'
p2174
I2564
sS'withdraw'
p2175
I2672
sS'swiss'
p2176
I1766
sS'entry'
p2177
I2471
sS'spend'
p2178
I1690
sS'yankees'
p2179
I1695
sS'things'
p2180
I853
sS'watching'
p2181
I2970
sS'responsible'
p2182
I3021
sS'telegram'
p2183
I1509
sS'quarters'
p2184
I949
sS'shape'
p2185
I1859
sS'questions'
p2186
I1395
sS'using'
p2187
I1749
sS'</s>'
p2188
I2
sS'tables'
p2189
I1238
sS'cut'
p2190
I1314
sS'tablet'
p2191
I2467
sS'cup'
p2192
I1174
sS'admission'
p2193
I1569
sS'guaranteed'
p2194
I1013
sS'chest'
p2195
I2180
sS'cherries'
p2196
I2211
sS'parents'
p2197
I567
sS'location'
p2198
I708
sS'sydney'
p2199
I1724
sS'excited'
p2200
I1455
sS'surprised'
p2201
I2846
sS'bin'
p2202
I2544
sS'complaint'
p2203
I2716
sS'australia'
p2204
I2964
sS'march'
p2205
I1823
sS'emergency'
p2206
I1501
sS'insert'
p2207
I2658
sS'big'
p2208
I1101
sS'couple'
p2209
I641
sS'unlimited'
p2210
I1195
sS'suffering'
p2211
I1133
sS'private'
p2212
I2157
sS'sherry'
p2213
I2685
sS'towel'
p2214
I1378
sS'bit'
p2215
I331
sS'formal'
p2216
I1948
sS'lost'
p2217
I780
sS'message'
p2218
I1758
sS'kennedy'
p2219
I3065
sS'separately'
p2220
I2041
sS'collect'
p2221
I878
sS'continue'
p2222
I1787
sS'popular'
p2223
I978
sS'often'
p2224
I1760
sS'brakes'
p2225
I2786
sS'sheraton'
p2226
I404
sS'spring'
p2227
I1169
sS'b.'
p2228
I1799
sS'some'
p2229
I28
sS'back'
p2230
I581
sS'nor'
p2231
I3094
sS'urgent'
p2232
I2108
sS'economic'
p2233
I3046
sS'fabric'
p2234
I2308
sS'sight'
p2235
I2470
sS'mirror'
p2236
I2448
sS'souvenirs'
p2237
I1626
sS'ourselves'
p2238
I2575
sS'delivered'
p2239
I2265
sS'scale'
p2240
I2017
sS'jewelry'
p2241
I2520
sS'decision'
p2242
I960
sS'though'
p2243
I2659
sS'per'
p2244
I1167
sS'pen'
p2245
I2548
sS'connecting'
p2246
I1453
sS'excluding'
p2247
I2990
sS'anne'
p2248
I2250
sS'temple'
p2249
I964
sS'nose'
p2250
I1979
sS'be'
p2251
I110
sS'run'
p2252
I196
sS'ba'
p2253
I2365
sS'reach'
p2254
I858
sS'lose'
p2255
I2721
sS'airsickness'
p2256
I1271
sS'step'
p2257
I2589
sS'negatives'
p2258
I2555
sS'santa'
p2259
I2488
sS'become'
p2260
I712
sS'ache'
p2261
I2098
sS'abroad'
p2262
I881
sS'goods'
p2263
I1994
sS'usa'
p2264
I1876
sS'anything'
p2265
I31
sS'most'
p2266
I602
sS'plaza'
p2267
I1731
sS'mrs.'
p2268
I825
sS'lockers'
p2269
I3087
sS'whisky'
p2270
I1272
sS'ounce'
p2271
I1511
sS'replacement'
p2272
I2932
sS'block'
p2273
I2509
sS'recommended'
p2274
I2619
sS'seeing'
p2275
I1212
sS'hudson'
p2276
I2885
sS'long-'
p2277
I1544
sS'into'
p2278
I214
sS'within'
p2279
I1470
sS'tofu'
p2280
I2626
sS'services'
p2281
I1882
sS'payment'
p2282
I1817
sS'lesson'
p2283
I1596
sS'sports'
p2284
I497
sS'rolls'
p2285
I1966
sS'smells'
p2286
I2656
sS'sightseeing'
p2287
I583
sS'impressed'
p2288
I1110
sS'eleven'
p2289
I1650
sS'spending'
p2290
I2205
sS'question'
p2291
I2878
sS'fast'
p2292
I1340
sS'custom'
p2293
I1304
sS'u-'
p2294
I2465
sS'suit'
p2295
I1486
sS'forward'
p2296
I1211
sS'opens'
p2297
I2015
sS'mountains'
p2298
I1376
sS'invite'
p2299
I2070
sS'inches'
p2300
I1330
sS'registered'
p2301
I254
sS'specialty'
p2302
I845
sS'boys'
p2303
I2178
sS'properly'
p2304
I1789
sS'delta'
p2305
I672
sS'upright'
p2306
I1741
sS'sun'
p2307
I3055
sS'line'
p2308
I1518
sS'dull'
p2309
I590
sS'underground'
p2310
I2538
sS'vacancies'
p2311
I973
sS'fries'
p2312
I363
sS'up'
p2313
I45
sS'us'
p2314
I217
sS'um'
p2315
I2260
sS"'re"
p2316
I782
sS'customers'
p2317
I2824
sS'uh'
p2318
I615
sS'fried'
p2319
I1573
sS'ua'
p2320
I2866
sS'called'
p2321
I548
sS'bell'
p2322
I2358
sS'units'
p2323
I2849
sS'ordered'
p2324
I863
sS'adults'
p2325
I727
sS'confiscate'
p2326
I3117
sS'elegant'
p2327
I2954
sS'lost-'
p2328
I1358
sS'package'
p2329
I875
sS'single'
p2330
I412
sS'chat'
p2331
I3119
sS'cafe'
p2332
I3041
sS'cotton'
p2333
I1963
sS'phantom'
p2334
I2893
sS'rainy'
p2335
I2405
sS'lemon'
p2336
I294
sS'application'
p2337
I2051
sS'parlor'
p2338
I1562
sS'definitely'
p2339
I2556
sS'electrical'
p2340
I3081
sS'income'
p2341
I2386
sS'department'
p2342
I339
sS'mayonnaise'
p2343
I2763
sS'manhattan'
p2344
I2933
sS'nice'
p2345
I172
sS'draw'
p2346
I1927
sS'mustard'
p2347
I2065
sS'lend'
p2348
I1779
sS'envelope'
p2349
I1164
sS'problems'
p2350
I276
sS'prepared'
p2351
I1411
sS'lens'
p2352
I1769
sS'insect'
p2353
I2625
sS'lunch'
p2354
I1307
sS'reservation'
p2355
I327
sS'song'
p2356
I2803
sS'meals'
p2357
I180
sS'earphones'
p2358
I2113
sS'ago'
p2359
I1065
sS'lane'
p2360
I1868
sS'land'
p2361
I2743
sS'e'
I2984
sS'valuables'
p2362
I508
sS'age'
p2363
I809
sS'required'
p2364
I2367
sS'pamphlets'
p2365
I2652
sS'departs'
p2366
I1874
sS'carrying'
p2367
I2105
sS'fresh'
p2368
I1454
sS'dover'
p2369
I719
sS'hello'
p2370
I512
sS'once'
p2371
I1772
sS'code'
p2372
I923
sS'scratch'
p2373
I2258
sS'secretary'
p2374
I2251
sS'enjoyable'
p2375
I3001
sS'desserts'
p2376
I911
sS'go'
p2377
I94
sS'humid'
p2378
I3054
sS'compact'
p2379
I1441
sS'concerned'
p2380
I1677
sS'young'
p2381
I1653
sS'send'
p2382
I253
sS'suits'
p2383
I2581
sS'languages'
p2384
I2673
sS'include'
p2385
I1082
sS'friendly'
p2386
I908
sS'sent'
p2387
I2418
sS'fly'
p2388
I1060
sS'confirmation'
p2389
I1491
sS'garden'
p2390
I969
sS'dessert'
p2391
I1059
sS'listed'
p2392
I1727
sS'spoon'
p2393
I2460
sS'wishes'
p2394
I2071
sS'telling'
p2395
I2608
sS'drinking'
p2396
I2699
sS'forks'
p2397
I2409
sS'arrange'
p2398
I1066
sS'stiff'
p2399
I3002
sS'transmission'
p2400
I3057
sS'button'
p2401
I145
sS'try'
p2402
I417
sS"'hote"
p2403
I2449
sS'knife'
p2404
I2115
sS'rack'
p2405
I1381
sS'smaller'
p2406
I1251
sS'safe-'
p2407
I2049
sS'bleeding'
p2408
I1763
sS'wrestling'
p2409
I495
sS'boots'
p2410
I2056
sS'hyde'
p2411
I2221
sS'traveling'
p2412
I1530
sS'picked'
p2413
I1080
sS'oda'
p2414
I1676
sS'folk'
p2415
I2080
sS'sausage'
p2416
I2053
sS'plays'
p2417
I2434
sS'power'
p2418
I1529
sS'paintings'
p2419
I1857
sS'chicago'
p2420
I239
sS'giving'
p2421
I2306
sS'hokkaido'
p2422
I605
sS'saw'
p2423
I1819
sS'schedule'
p2424
I2776
sS'waiting'
p2425
I640
sS'indian'
p2426
I535
sS'sixth'
p2427
I1828
sS'exercise'
p2428
I1317
sS'body'
p2429
I2050
sS'lessons'
p2430
I1771
sS'measurements'
p2431
I3091
sS'degree'
p2432
I1764
sS'exchange'
p2433
I612
sS'onion'
p2434
I2913
sS'prescribe'
p2435
I2864
sS'brooch'
p2436
I2325
sS'fifteenth'
p2437
I1106
sS'highly'
p2438
I2880
sS'packing'
p2439
I1517
sS'let'
p2440
I35
sS'others'
p2441
I1278
sS'fifteen'
p2442
I637
sS'great'
p2443
I614
sS'receive'
p2444
I1162
sS'involved'
p2445
I2518
sS'casino'
p2446
I601
sS'calvin'
p2447
I2590
sS'leaving'
p2448
I1092
sS'tires'
p2449
I2835
sS'products'
p2450
I2753
sS'skin'
p2451
I2090
sS'opinion'
p2452
I635
sS'makes'
p2453
I1662
sS'weekends'
p2454
I2316
sS'apple'
p2455
I1572
sS'nearest'
p2456
I140
sS'pressed'
p2457
I2541
sS'manage'
p2458
I1438
sS'garlic'
p2459
I2944
sS'snatched'
p2460
I1832
sS'five-'
p2461
I2887
sS'names'
p2462
I1970
sS'apply'
p2463
I2112
sS'ninth'
p2464
I1862
sS'chilly'
p2465
I2111
sS'headed'
p2466
I3030
sS'speciality'
p2467
I2943
sS'standing'
p2468
I2046
sS'use'
p2469
I413
sS'fee'
p2470
I1075
sS'from'
p2471
I230
sS'drop-'
p2472
I1610
sS'certificate'
p2473
I762
sS'iced'
p2474
I2947
sS'snacks'
p2475
I2514
sS'management'
p2476
I3085
sS'rackets'
p2477
I2657
sS'next'
p2478
I594
sS'few'
p2479
I850
sS'camera'
p2480
I680
sS'examination'
p2481
I2372
sS'crab'
p2482
I2939
sS'timetable'
p2483
I2208
sS'toy'
p2484
I2795
sS'stage'
p2485
I1887
sS'oily'
p2486
I2089
sS'sort'
p2487
I597
sS'pencil'
p2488
I2549
sS'formally'
p2489
I995
sS'hard-'
p2490
I2299
sS'started'
p2491
I72
sS'becomes'
p2492
I2792
sS'sister'
p2493
I2647
sS'reissued'
p2494
I2321
sS'sore'
p2495
I92
sS'train'
p2496
I17
sS'brochure'
p2497
I1050
sS'women'
p2498
I483
sS'customer'
p2499
I2184
sS'account'
p2500
I1845
sS'salad'
p2501
I1183
sS'f'
I3014
sS'this'
p2502
I81
sS'ride'
p2503
I1150
sS'oh'
p2504
I787
sS'one-'
p2505
I1716
sS'anywhere'
p2506
I1607
sS'thin'
p2507
I1313
sS'island'
p2508
I1943
sS'meet'
p2509
I1202
sS'closing'
p2510
I3092
sS'drops'
p2511
I1850
sS'performed'
p2512
I3007
sS'control'
p2513
I1398
sS'wharf'
p2514
I2172
sS'reserved'
p2515
I802
sS'figures'
p2516
I2692
sS'thirsty'
p2517
I1262
sS'plate'
p2518
I1499
sS'calculation'
p2519
I1713
sS'lock'
p2520
I2646
sS'matinee'
p2521
I433
sS'tax'
p2522
I644
sS'pieces'
p2523
I2379
sS'high'
p2524
I870
sS'half-'
p2525
I1585
sS'tag'
p2526
I375
sS'hilton'
p2527
I12
sS'something'
p2528
I387
sS'slip'
p2529
I841
sS'wonderful'
p2530
I1875
sS'shrimp'
p2531
I1507
sS'skirt'
p2532
I1944
sS'lamb'
p2533
I948
sS'sir'
p2534
I360
sS'united'
p2535
I1191
sS'colorful'
p2536
I2875
sS'sit'
p2537
I831
sS'onions'
p2538
I2062
sS'six'
p2539
I436
sS'delay'
p2540
I2749
sS'located'
p2541
I768
sS'lamp'
p2542
I1137
sS'instead'
p2543
I414
sS'nara'
p2544
I2688
sS'stock'
p2545
I1178
sS'fare'
p2546
I1568
sS'buildings'
p2547
I1968
sS'entree'
p2548
I2453
sS'blocks'
p2549
I408
sS'y'
I2938
sS'attend'
p2550
I1126
sS'stop'
p2551
I123
sS'act'
p2552
I2934
sS'collection'
p2553
I1856
sS'notebook'
p2554
I1332
sS'wrist'
p2555
I2117
sS'belongings'
p2556
I1243
sS'ties'
p2557
I1537
sS'appetizer'
p2558
I2862
sS'tomato'
p2559
I1767
sS'issued'
p2560
I2668
sS'poached'
p2561
I1186
sS'light'
p2562
I48
sS'counter'
p2563
I247
sS'lines'
p2564
I2836
sS'feels'
p2565
I2707
sS'spain'
p2566
I3024
sS'allow'
p2567
I2972
sS'necklace'
p2568
I2838
sS'martini'
p2569
I3026
sS'preparing'
p2570
I783
sS'bathing'
p2571
I2570
sS'hiroshi'
p2572
I814
sS'move'
p2573
I2001
sS'meter'
p2574
I2394
sS'produced'
p2575
I2850
sS'including'
p2576
I1450
sS'looks'
p2577
I388
sS'cruise'
p2578
I1108
sS'interpreter'
p2579
I2754
sS'perfect'
p2580
I1252
sS'lounge'
p2581
I1980
sS'la'
p2582
I2168
sS'labor'
p2583
I557
sS'dry-'
p2584
I2489
sS'permanent'
p2585
I115
sS'wake-'
p2586
I1412
sS'choose'
p2587
I659
sS'stalled'
p2588
I1796
sS'orange'
p2589
I1659
sS'hobby'
p2590
I2037
sS'holiday'
p2591
I501
sS'spot'
p2592
I2035
sS'designs'
p2593
I2152
sS's-'
p2594
I2464
sS'spell'
p2595
I647
sS'oranges'
p2596
I1858
sS'connected'
p2597
I2694
sS'sweets'
p2598
I2155
sS'hands'
p2599
I2088
sS'front'
p2600
I59
sS'shutter'
p2601
I2397
sS'day'
p2602
I282
sS'articles'
p2603
I2091
sS'february'
p2604
I2844
sS'scenic'
p2605
I2979
sS'university'
p2606
I351
sS'nonsmoking'
p2607
I2978
sS'slide'
p2608
I2179
sS'overcharged'
p2609
I2914
sS'crossing'
p2610
I1318
sS'bills'
p2611
I808
sS'tray'
p2612
I1740
sS'glasses'
p2613
I353
sS'beginner'
p2614
I1364
sS'edinburgh'
p2615
I1206
sS'doing'
p2616
I1903
sS'apologize'
p2617
I2936
sS'product'
p2618
I2371
sS'books'
p2619
I1022
sS'thirteen'
p2620
I2043
sS'measure'
p2621
I2055
sS'our'
p2622
I337
sS'disco'
p2623
I1946
sS'tenth'
p2624
I499
sS'special'
p2625
I322
sS'out'
p2626
I192
sS'mid-'
p2627
I1670
sS"'"
I856
sS'twice'
p2628
I1933
sS'plum'
p2629
I2781
sS'boutique'
p2630
I1871
sS'h-'
p2631
I3102
sS'fifty-'
p2632
I435
sS'electronics'
p2633
I1557
sS'cause'
p2634
I2391
sS'red'
p2635
I50
sS'afford'
p2636
I2220
sS'shut'
p2637
I2318
sS'umbrella'
p2638
I2402
sS'dictionary'
p2639
I736
sS'wines'
p2640
I2181
sS'frank'
p2641
I1883
sS'fourteen'
p2642
I2390
sS'completely'
p2643
I1199
sS'surely'
p2644
I385
sS'york'
p2645
I454
sS'shortest'
p2646
I3013
sS'her'
p2647
I207
sS'g'
I489
sS'gallons'
p2648
I2971
sS'could'
p2649
I202
sS'times'
p2650
I367
sS'conversation'
p2651
I1020
sS'length'
p2652
I2419
sS'restaurants'
p2653
I1565
sS'vegetables'
p2654
I2765
sS'south'
p2655
I1127
sS'scene'
p2656
I2676
sS'relish'
p2657
I2183
sS'philadelphia'
p2658
I2732
sS'fits'
p2659
I2127
sS'eleventh'
p2660
I1484
sS'submit'
p2661
I3000
sS'guidebook'
p2662
I861
sS'short-'
p2663
I1645
sS'quality'
p2664
I1449
sS'two-'
p2665
I835
sS'los'
p2666
I1176
sS'festival'
p2667
I1852
sS'durable'
p2668
I2175
sS'traveller'
p2669
I1094
sS'system'
p2670
I806
sS'their'
p2671
I566
sS'attack'
p2672
I2491
sS'ankle'
p2673
I1834
sS'perfectly'
p2674
I2905
sS'tourists'
p2675
I1879
sS'cabin'
p2676
I1905
sS'sixteenth'
p2677
I1227
sS'shell'
p2678
I1189
sS'stomach'
p2679
I819
sS'gear'
p2680
I2897
sS'shelf'
p2681
I1540
sS'completed'
p2682
I1354
sS'nobody'
p2683
I1033
sS'regards'
p2684
I2337
sS'branches'
p2685
I3040
sS'july'
p2686
I513
sS'remember'
p2687
I1334
sS'roulette'
p2688
I2729
sS'bother'
p2689
I585
sS'shampoo'
p2690
I626
sS'bed'
p2691
I843
sS'visited'
p2692
I2016
sS'bet'
p2693
I909
sS'ferry'
p2694
I2498
sS'drunk'
p2695
I2664
sS'comfortable'
p2696
I1493
sS'tonight'
p2697
I358
sS'have'
p2698
I53
sS'need'
p2699
I33
sS'sky'
p2700
I1898
sS'clearly'
p2701
I2627
sS'necessities'
p2702
I1036
sS'afraid'
p2703
I444
sS'dishes'
p2704
I987
sS'dallas'
p2705
I2901
sS'studying'
p2706
I750
sS'agency'
p2707
I1515
sS'able'
p2708
I541
sS'hangover'
p2709
I1160
sS'which'
p2710
I156
sS'appendicitis'
p2711
I2492
sS'truck'
p2712
I1644
sS'soap'
p2713
I627
sS'mileage'
p2714
I1196
sS'unless'
p2715
I468
sS'centre'
p2716
I2666
sS'petrol'
p2717
I2966
sS'who'
p2718
I485
sS'visa'
p2719
I1224
sS'eight'
p2720
I185
sS'tanaka'
p2721
I924
sS'why'
p2722
I728
sS'spirits'
p2723
I2983
sS'stereo'
p2724
I2924
sS'request'
p2725
I1743
sS'disease'
p2726
I2965
sS'outfit'
p2727
I2830
sS'face'
p2728
I1248
sS'looked'
p2729
I1423
sS'scrambled'
p2730
I1719
sS'pictures'
p2731
I874
sS'painting'
p2732
I2008
sS'fact'
p2733
I1297
sS'son'
p2734
I1487
sS'atmosphere'
p2735
I1257
sS'selection'
p2736
I2277
sS'rings'
p2737
I2684
sS'agreed'
p2738
I2592
sS'anyway'
p2739
I1076
sS'brother'
p2740
I3037
sS'vacancy'
p2741
I1546
sS'bring'
p2742
I26
sS'planning'
p2743
I1348
sS'manchester'
p2744
I834
sS'bedroom'
p2745
I3101
sS'chicken'
p2746
I576
sS'pleased'
p2747
I2373
sS'staff'
p2748
I338
sS'ha'
p2749
I2696
sS'tire'
p2750
I2075
sS'rash'
p2751
I1124
sS'should'
p2752
I284
sS'terminal'
p2753
I1642
sS'brighter'
p2754
I2839
sS'jal'
p2755
I877
sS'jam'
p2756
I2859
sS'tape'
p2757
I1041
sS'hand-'
p2758
I3025
sS'piano'
p2759
I1770
sS'local'
p2760
I1611
sS'hope'
p2761
I621
sS'regularly'
p2762
I2770
sS'handle'
p2763
I2474
sS'means'
p2764
I1855
sS'familiar'
p2765
I2709
sS'lucky'
p2766
I2085
sS'bear'
p2767
I2973
sS'ones'
p2768
I1265
sS'stars'
p2769
I3029
sS'words'
p2770
I1216
sS'kong'
p2771
I3031
sS'chips'
p2772
I1892
sS'areas'
p2773
I2530
sS'gray'
p2774
I2760
sS'tobacco'
p2775
I1939
sS'ashtray'
p2776
I2141
sS'h'
I2797
sS'married'
p2777
I1300
sS'calling'
p2778
I236
sS'stuff'
p2779
I2195
sS'she'
p2780
I211
sS'dangerous'
p2781
I1928
sS'fixed'
p2782
I1458
sS'view'
p2783
I697
sS'available'
p2784
I713
sS'national'
p2785
I500
sS'breathe'
p2786
I2748
sS'edition'
p2787
I2665
sS'computer'
p2788
I1985
sS'powder'
p2789
I1638
sS'racket'
p2790
I2740
sS'packed'
p2791
I999
sS'reconfirm'
p2792
I1579
sS'washable'
p2793
I2635
sS'closet'
p2794
I2355
sS'pattern'
p2795
I2977
sS'favor'
p2796
I2455
sS'written'
p2797
I1681
sS'quickest'
p2798
I3093
sS'identification'
p2799
I445
sS'closed'
p2800
I1396
sS'tens'
p2801
I1408
sS'neither'
p2802
I2161
sS'pants'
p2803
I914
sS'ken'
p2804
I920
sS'ends'
p2805
I2636
sS'sole'
p2806
I720
sS'exam'
p2807
I1233
sS'opening'
p2808
I2300
sS'deliver'
p2809
I2003
sS'job'
p2810
I2009
sS'key'
p2811
I434
sS'group'
p2812
I1229
sS'lotion'
p2813
I1861
sS'instant'
p2814
I2915
sS'medium-'
p2815
I2506
sS'ten-'
p2816
I1701
sS'high-'
p2817
I2134
sS'invited'
p2818
I1143
sS'drug'
p2819
I1091
sS'agree'
p2820
I2036
sS'april'
p2821
I669
sS'bellboy'
p2822
I907
sS'bronx'
p2823
I2813
sS'passing'
p2824
I2083
sS'heart'
p2825
I2312
sS'safely'
p2826
I1707
sS'aquarium'
p2827
I2761
sS'jim'
p2828
I2889
sS'toilet'
p2829
I983
sS'wall'
p2830
I504
sS'tuesday'
p2831
I1485
sS'walk'
p2832
I1341
sS'table'
p2833
I54
sS'pullover'
p2834
I2906
sS'quit'
p2835
I3074
sS'maid'
p2836
I2892
sS'hayakawa'
p2837
I2094
sS'copies'
p2838
I2982
sS'cent'
p2839
I1166
sS'taste'
p2840
I1718
sS'willing'
p2841
I2232
sS'slowly'
p2842
I773
sS'treat'
p2843
I2811
sS'certain'
p2844
I2414
sS'degrees'
p2845
I2303
sS'waste'
p2846
I2815
sS'shoulders'
p2847
I2523
sS'painted'
p2848
I2663
sS'moved'
p2849
I2655
sS'tap'
p2850
I3075
sS'miki'
p2851
I2093
sS'hmm'
p2852
I2857
sS'finished'
p2853
I1447
sS'watches'
p2854
I1803
sS'covered'
p2855
I2752
sS'smoking'
p2856
I164
sS'atlanta'
p2857
I952
sS'an'
p2858
I261
sS'present'
p2859
I376
sS'bye'
p2860
I893
sS'plain'
p2861
I927
sS'vanilla'
p2862
I2032
sS'examine'
p2863
I2199
sS'value'
p2864
I2143
sS'will'
p2865
I397
sS'expiration'
p2866
I2525
sS'fault'
p2867
I1037
sS'wild'
p2868
I3097
sS'bathtub'
p2869
I1406
sS'yokohama'
p2870
I2415
sS'almost'
p2871
I1234
sS'harada'
p2872
I2823
sS'site'
p2873
I1667
sS'surface'
p2874
I2482
sS'arrangements'
p2875
I572
sS'bucks'
p2876
I2981
sS'perhaps'
p2877
I2476
sS'landmarks'
p2878
I2630
sS'buddhist'
p2879
I2689
sS'cross'
p2880
I1156
sS'of-'
p2881
I2486
sS'member'
p2882
I1685
sS'when'
p2883
I377
sS'strange'
p2884
I913
sS'northwest'
p2885
I2356
sS'largest'
p2886
I2021
sS'inch'
p2887
I1634
sS'party'
p2888
I1034
sS'gets'
p2889
I1148
sS'twelfth'
p2890
I488
sS'difficult'
p2891
I854
sS'injured'
p2892
I222
sS'ball'
p2893
I880
sS'drink'
p2894
I705
sS'sooner'
p2895
I3083
sS'student'
p2896
I917
sS'sisters'
p2897
I1299
sS'sunburn'
p2898
I3058
sS'lobby'
p2899
I710
sS'insure'
p2900
I1575
sS'off'
p2901
I651
sS'center'
p2902
I905
sS'year-'
p2903
I1007
sS'i'
I4
sS'colour'
p2904
I2854
sS'pickpocket'
p2905
I131
sS'well'
p2906
I158
sS'carat'
p2907
I2858
sS'thought'
p2908
I901
sS'english'
p2909
I753
sS'position'
p2910
I1742
sS'sixty-'
p2911
I1625
sS'drawing'
p2912
I2326
sS'latest'
p2913
I903
sS'stores'
p2914
I1476
sS'less'
p2915
I1078
sS'domestic'
p2916
I2295
sS'cakes'
p2917
I1824
sS'not'
p2918
I43
sS'clinic'
p2919
I896
sS'voltage'
p2920
I452
sS'seats'
p2921
I617
sS'kindness'
p2922
I2554
sS'field'
p2923
I2160
sS'drive'
p2924
I2229
sS'smith'
p2925
I231
sS'lake'
p2926
I817
sS'realize'
p2927
I549
sS'simple'
p2928
I2396
sS'add'
p2929
I1962
sS'book'
p2930
I341
sS'cosmetics'
p2931
I2158
sS'wet'
p2932
I2680
sS'ought'
p2933
I2334
sS'ski'
p2934
I886
sS'match'
p2935
I1346
sS'sick'
p2936
I2109
sS'government'
p2937
I545
sS'checking'
p2938
I703
sS'fuji'
p2939
I2540
sS'dryer'
p2940
I2146
sS'five'
p2941
I315
sS'know'
p2942
I37
sS'facial'
p2943
I2368
sS'desk'
p2944
I895
sS'press'
p2945
I1327
sS'turbulence'
p2946
I1680
sS'intersection'
p2947
I1157
sS'pier'
p2948
I243
sS'loss'
p2949
I1215
sS'lincoln'
p2950
I2953
sS'necessary'
p2951
I1479
sS'like'
p2952
I117
sS'inviting'
p2953
I1008
sS'sizes'
p2954
I823
sS'miami'
p2955
I1268
sS'ring'
p2956
I2204
sS'candy'
p2957
I3086
sS'sized'
p2958
I735
sS'chemist'
p2959
I2217
sS'martin'
p2960
I1888
sS'leaves'
p2961
I1152
sS'works'
p2962
I1839
sS'soft'
p2963
I1909
sS'page'
p2964
I2287
sS'heel'
p2965
I2163
sS'italian'
p2966
I1806
sS'bowl'
p2967
I2507
sS'because'
p2968
I715
sS'classical'
p2969
I1053
sS'village'
p2970
I1809
sS'thief'
p2971
I2268
sS'library'
p2972
I1462
sS'hair'
p2973
I1325
sS'daylight'
p2974
I1658
sS'francisco'
p2975
I634
sS'warmer'
p2976
I1410
sS'flush'
p2977
I2452
sS'home'
p2978
I666
sS'empire'
p2979
I2131
sS'happens'
p2980
I2611
sS'graduation'
p2981
I2929
sS'returned'
p2982
I2283
sS'lead'
p2983
I2789
sS'avoid'
p2984
I391
sS'does'
p2985
I122
sS'earrings'
p2986
I798
sS'?'
I14
sS'pepper'
p2987
I1141
sS'noise'
p2988
I2529
sS'slight'
p2989
I2458
sS'blouse'
p2990
I1840
sS'jack'
p2991
I2345
sS'paper'
p2992
I1366
sS'pressure'
p2993
I1915
sS'prohibited'
p2994
I2874
sS'a.'
p2995
I2122
sS'noisy'
p2996
I1031
sS'about'
p2997
I40
sS'rare'
p2998
I1846
sS'extension'
p2999
I646
sS'getting'
p3000
I842
sS'spilled'
p3001
I1902
sS'shipping'
p3002
I2711
sS'angeles'
p3003
I1177
sS'monthly'
p3004
I1492
sS'airsick'
p3005
I2246
sS'emperor'
p3006
I2421
sS'swimming'
p3007
I2304
sS'warranty'
p3008
I291
sS'own'
p3009
I700
sS'letters'
p3010
I1827
sS'travelers'
p3011
I1534
sS'washington'
p3012
I803
sS'socks'
p3013
I950
sS'tackle'
p3014
I1503
sS'guard'
p3015
I2137
sS'weather'
p3016
I1442
sS'brush'
p3017
I3089
sS'registration'
p3018
I1353
sS'ketchup'
p3019
I1919
sS'quickly'
p3020
I1309
sS'additional'
p3021
I2114
sS'transfer'
p3022
I252
sS'museum'
p3023
I403
sS'spots'
p3024
I2361
sS'kidding'
p3025
I2928
sS'continental'
p3026
I2360
sS'biggest'
p3027
I2382
sS'exposure'
p3028
I2242
sS'suzuki'
p3029
I1095
sS'vat'
p3030
I2945
sS'buy'
p3031
I379
sS'north'
p3032
I479
sS'interest'
p3033
I1878
sS'bus'
p3034
I7
sS'brand'
p3035
I530
sS'but'
p3036
I70
sS'delivery'
p3037
I323
sS'hi'
p3038
I660
sS'courts'
p3039
I2376
sS'larger'
p3040
I1624
sS'helpful'
p3041
I2286
sS'ear'
p3042
I2681
sS'memphis'
p3043
I2487
sS'eat'
p3044
I148
sS'he'
p3045
I370
sS'count'
p3046
I2834
sS'made'
p3047
I183
sS'wise'
p3048
I2484
sS'beds'
p3049
I2741
sS'places'
p3050
I1867
sS'noon'
p3051
I2546
sS'whether'
p3052
I1622
sS'wish'
p3053
I1185
sS'official'
p3054
I3047
sS'smooth'
p3055
I1679
sS'signed'
p3056
I2910
sS'record'
p3057
I820
sS'below'
p3058
I423
sS'limit'
p3059
I1472
sS'cake'
p3060
I2408
sS'problem'
p3061
I1209
sS'piece'
p3062
I2359
sS'minutes'
p3063
I250
sS'display'
p3064
I2412
sS'pin'
p3065
I79
sS'sirloin'
p3066
I2490
sS'reservations'
p3067
I184
sS'brochures'
p3068
I1001
sS'pie'
p3069
I2167
sS'inn'
p3070
I1230
sS'ink'
p3071
I3079
sS'education'
p3072
I1528
sS'girl'
p3073
I1821
sS'balcony'
p3074
I1374
sS'diego'
p3075
I1987
sS"'ll"
p3076
I25
sS'ingredients'
p3077
I1478
sS'dressed'
p3078
I996
sS'packs'
p3079
I2958
sS'percent'
p3080
I482
sS'detail'
p3081
I2478
sS'other'
p3082
I553
sS'details'
p3083
I731
sS'branch'
p3084
I1983
sS'coffees'
p3085
I2624
sS'dresses'
p3086
I1818
sS'repeat'
p3087
I772
sS'kinds'
p3088
I560
sS'monday'
p3089
I757
sS'june'
p3090
I2272
sS'stay'
p3091
I349
sS'in-'
p3092
I2092
sS'chance'
p3093
I2292
sS'priced'
p3094
I2951
sS'friends'
p3095
I1184
sS'opened'
p3096
I2210
sS'frankfurt'
p3097
I2138
sS'portion'
p3098
I2007
sS'sleeves'
p3099
I1324
sS'baked'
p3100
I690
s.